   1               		.file	"rgb_matrix.c"
   2               	__SP_H__ = 0x3e
   3               	__SP_L__ = 0x3d
   4               	__SREG__ = 0x3f
   5               	__tmp_reg__ = 0
   6               	__zero_reg__ = 1
   7               		.text
   8               	.Ltext0:
   9               		.cfi_sections	.debug_frame
  10               		.section	.text.scale16by8,"ax",@progbits
  12               	scale16by8:
  13               	.LVL0:
  14               	.LFB29:
  15               		.file 1 "./lib/lib8tion/scale8.h"
   1:./lib/lib8tion/scale8.h **** #ifndef __INC_LIB8TION_SCALE_H
   2:./lib/lib8tion/scale8.h **** #define __INC_LIB8TION_SCALE_H
   3:./lib/lib8tion/scale8.h **** 
   4:./lib/lib8tion/scale8.h **** ///@ingroup lib8tion
   5:./lib/lib8tion/scale8.h **** 
   6:./lib/lib8tion/scale8.h **** ///@defgroup Scaling Scaling functions
   7:./lib/lib8tion/scale8.h **** /// Fast, efficient 8-bit scaling functions specifically
   8:./lib/lib8tion/scale8.h **** /// designed for high-performance LED programming.
   9:./lib/lib8tion/scale8.h **** ///
  10:./lib/lib8tion/scale8.h **** /// Because of the AVR(Arduino) and ARM assembly language
  11:./lib/lib8tion/scale8.h **** /// implementations provided, using these functions often
  12:./lib/lib8tion/scale8.h **** /// results in smaller and faster code than the equivalent
  13:./lib/lib8tion/scale8.h **** /// program using plain "C" arithmetic and logic.
  14:./lib/lib8tion/scale8.h **** ///@{
  15:./lib/lib8tion/scale8.h **** 
  16:./lib/lib8tion/scale8.h **** ///  scale one byte by a second one, which is treated as
  17:./lib/lib8tion/scale8.h **** ///  the numerator of a fraction whose denominator is 256
  18:./lib/lib8tion/scale8.h **** ///  In other words, it computes i * (scale / 256)
  19:./lib/lib8tion/scale8.h **** ///  4 clocks AVR with MUL, 2 clocks ARM
  20:./lib/lib8tion/scale8.h **** LIB8STATIC_ALWAYS_INLINE uint8_t scale8( uint8_t i, fract8 scale)
  21:./lib/lib8tion/scale8.h **** {
  22:./lib/lib8tion/scale8.h **** #if SCALE8_C == 1
  23:./lib/lib8tion/scale8.h **** #if (FASTLED_SCALE8_FIXED == 1)
  24:./lib/lib8tion/scale8.h ****     return (((uint16_t)i) * (1+(uint16_t)(scale))) >> 8;
  25:./lib/lib8tion/scale8.h **** #else
  26:./lib/lib8tion/scale8.h ****     return ((uint16_t)i * (uint16_t)(scale) ) >> 8;
  27:./lib/lib8tion/scale8.h **** #endif
  28:./lib/lib8tion/scale8.h **** #elif SCALE8_AVRASM == 1
  29:./lib/lib8tion/scale8.h **** #if defined(LIB8_ATTINY)
  30:./lib/lib8tion/scale8.h **** #if (FASTLED_SCALE8_FIXED == 1)
  31:./lib/lib8tion/scale8.h ****     uint8_t work=i;
  32:./lib/lib8tion/scale8.h **** #else
  33:./lib/lib8tion/scale8.h ****     uint8_t work=0;
  34:./lib/lib8tion/scale8.h **** #endif
  35:./lib/lib8tion/scale8.h ****     uint8_t cnt=0x80;
  36:./lib/lib8tion/scale8.h ****     asm volatile(
  37:./lib/lib8tion/scale8.h **** #if (FASTLED_SCALE8_FIXED == 1)
  38:./lib/lib8tion/scale8.h ****         "  inc %[scale]                 \n\t"
  39:./lib/lib8tion/scale8.h ****         "  breq DONE_%=                 \n\t"
  40:./lib/lib8tion/scale8.h ****         "  clr %[work]                  \n\t"
  41:./lib/lib8tion/scale8.h **** #endif
  42:./lib/lib8tion/scale8.h ****         "LOOP_%=:                       \n\t"
  43:./lib/lib8tion/scale8.h ****         /*"  sbrc %[scale], 0             \n\t"
  44:./lib/lib8tion/scale8.h ****         "  add %[work], %[i]            \n\t"
  45:./lib/lib8tion/scale8.h ****         "  ror %[work]                  \n\t"
  46:./lib/lib8tion/scale8.h ****         "  lsr %[scale]                 \n\t"
  47:./lib/lib8tion/scale8.h ****         "  clc                          \n\t"*/
  48:./lib/lib8tion/scale8.h ****         "  sbrc %[scale], 0             \n\t"
  49:./lib/lib8tion/scale8.h ****         "  add %[work], %[i]            \n\t"
  50:./lib/lib8tion/scale8.h ****         "  ror %[work]                  \n\t"
  51:./lib/lib8tion/scale8.h ****         "  lsr %[scale]                 \n\t"
  52:./lib/lib8tion/scale8.h ****         "  lsr %[cnt]                   \n\t"
  53:./lib/lib8tion/scale8.h ****         "brcc LOOP_%=                   \n\t"
  54:./lib/lib8tion/scale8.h ****         "DONE_%=:                       \n\t"
  55:./lib/lib8tion/scale8.h ****         : [work] "+r" (work), [cnt] "+r" (cnt)
  56:./lib/lib8tion/scale8.h ****         : [scale] "r" (scale), [i] "r" (i)
  57:./lib/lib8tion/scale8.h ****         :
  58:./lib/lib8tion/scale8.h ****       );
  59:./lib/lib8tion/scale8.h ****     return work;
  60:./lib/lib8tion/scale8.h **** #else
  61:./lib/lib8tion/scale8.h ****     asm volatile(
  62:./lib/lib8tion/scale8.h **** #if (FASTLED_SCALE8_FIXED==1)
  63:./lib/lib8tion/scale8.h ****         // Multiply 8-bit i * 8-bit scale, giving 16-bit r1,r0
  64:./lib/lib8tion/scale8.h ****         "mul %0, %1          \n\t"
  65:./lib/lib8tion/scale8.h ****         // Add i to r0, possibly setting the carry flag
  66:./lib/lib8tion/scale8.h ****         "add r0, %0         \n\t"
  67:./lib/lib8tion/scale8.h ****         // load the immediate 0 into i (note, this does _not_ touch any flags)
  68:./lib/lib8tion/scale8.h ****         "ldi %0, 0x00       \n\t"
  69:./lib/lib8tion/scale8.h ****         // walk and chew gum at the same time
  70:./lib/lib8tion/scale8.h ****         "adc %0, r1          \n\t"
  71:./lib/lib8tion/scale8.h **** #else
  72:./lib/lib8tion/scale8.h ****          /* Multiply 8-bit i * 8-bit scale, giving 16-bit r1,r0 */
  73:./lib/lib8tion/scale8.h ****          "mul %0, %1          \n\t"
  74:./lib/lib8tion/scale8.h ****          /* Move the high 8-bits of the product (r1) back to i */
  75:./lib/lib8tion/scale8.h ****          "mov %0, r1          \n\t"
  76:./lib/lib8tion/scale8.h ****          /* Restore r1 to "0"; it's expected to always be that */
  77:./lib/lib8tion/scale8.h **** #endif
  78:./lib/lib8tion/scale8.h ****          "clr __zero_reg__    \n\t"
  79:./lib/lib8tion/scale8.h **** 
  80:./lib/lib8tion/scale8.h ****          : "+a" (i)      /* writes to i */
  81:./lib/lib8tion/scale8.h ****          : "a"  (scale)  /* uses scale */
  82:./lib/lib8tion/scale8.h ****          : "r0", "r1"    /* clobbers r0, r1 */ );
  83:./lib/lib8tion/scale8.h **** 
  84:./lib/lib8tion/scale8.h ****     /* Return the result */
  85:./lib/lib8tion/scale8.h ****     return i;
  86:./lib/lib8tion/scale8.h **** #endif
  87:./lib/lib8tion/scale8.h **** #else
  88:./lib/lib8tion/scale8.h **** #error "No implementation for scale8 available."
  89:./lib/lib8tion/scale8.h **** #endif
  90:./lib/lib8tion/scale8.h **** }
  91:./lib/lib8tion/scale8.h **** 
  92:./lib/lib8tion/scale8.h **** 
  93:./lib/lib8tion/scale8.h **** ///  The "video" version of scale8 guarantees that the output will
  94:./lib/lib8tion/scale8.h **** ///  be only be zero if one or both of the inputs are zero.  If both
  95:./lib/lib8tion/scale8.h **** ///  inputs are non-zero, the output is guaranteed to be non-zero.
  96:./lib/lib8tion/scale8.h **** ///  This makes for better 'video'/LED dimming, at the cost of
  97:./lib/lib8tion/scale8.h **** ///  several additional cycles.
  98:./lib/lib8tion/scale8.h **** LIB8STATIC_ALWAYS_INLINE uint8_t scale8_video( uint8_t i, fract8 scale)
  99:./lib/lib8tion/scale8.h **** {
 100:./lib/lib8tion/scale8.h **** #if SCALE8_C == 1 || defined(LIB8_ATTINY)
 101:./lib/lib8tion/scale8.h ****     uint8_t j = (((int)i * (int)scale) >> 8) + ((i&&scale)?1:0);
 102:./lib/lib8tion/scale8.h ****     // uint8_t nonzeroscale = (scale != 0) ? 1 : 0;
 103:./lib/lib8tion/scale8.h ****     // uint8_t j = (i == 0) ? 0 : (((int)i * (int)(scale) ) >> 8) + nonzeroscale;
 104:./lib/lib8tion/scale8.h ****     return j;
 105:./lib/lib8tion/scale8.h **** #elif SCALE8_AVRASM == 1
 106:./lib/lib8tion/scale8.h ****     uint8_t j=0;
 107:./lib/lib8tion/scale8.h ****     asm volatile(
 108:./lib/lib8tion/scale8.h ****         "  tst %[i]\n\t"
 109:./lib/lib8tion/scale8.h ****         "  breq L_%=\n\t"
 110:./lib/lib8tion/scale8.h ****         "  mul %[i], %[scale]\n\t"
 111:./lib/lib8tion/scale8.h ****         "  mov %[j], r1\n\t"
 112:./lib/lib8tion/scale8.h ****         "  clr __zero_reg__\n\t"
 113:./lib/lib8tion/scale8.h ****         "  cpse %[scale], r1\n\t"
 114:./lib/lib8tion/scale8.h ****         "  subi %[j], 0xFF\n\t"
 115:./lib/lib8tion/scale8.h ****         "L_%=: \n\t"
 116:./lib/lib8tion/scale8.h ****         : [j] "+a" (j)
 117:./lib/lib8tion/scale8.h ****         : [i] "a" (i), [scale] "a" (scale)
 118:./lib/lib8tion/scale8.h ****         : "r0", "r1");
 119:./lib/lib8tion/scale8.h **** 
 120:./lib/lib8tion/scale8.h ****     return j;
 121:./lib/lib8tion/scale8.h ****     // uint8_t nonzeroscale = (scale != 0) ? 1 : 0;
 122:./lib/lib8tion/scale8.h ****     // asm volatile(
 123:./lib/lib8tion/scale8.h ****     //      "      tst %0           \n"
 124:./lib/lib8tion/scale8.h ****     //      "      breq L_%=        \n"
 125:./lib/lib8tion/scale8.h ****     //      "      mul %0, %1       \n"
 126:./lib/lib8tion/scale8.h ****     //      "      mov %0, r1       \n"
 127:./lib/lib8tion/scale8.h ****     //      "      add %0, %2       \n"
 128:./lib/lib8tion/scale8.h ****     //      "      clr __zero_reg__ \n"
 129:./lib/lib8tion/scale8.h ****     //      "L_%=:                  \n"
 130:./lib/lib8tion/scale8.h **** 
 131:./lib/lib8tion/scale8.h ****     //      : "+a" (i)
 132:./lib/lib8tion/scale8.h ****     //      : "a" (scale), "a" (nonzeroscale)
 133:./lib/lib8tion/scale8.h ****     //      : "r0", "r1");
 134:./lib/lib8tion/scale8.h **** 
 135:./lib/lib8tion/scale8.h ****     // // Return the result
 136:./lib/lib8tion/scale8.h ****     // return i;
 137:./lib/lib8tion/scale8.h **** #else
 138:./lib/lib8tion/scale8.h **** #error "No implementation for scale8_video available."
 139:./lib/lib8tion/scale8.h **** #endif
 140:./lib/lib8tion/scale8.h **** }
 141:./lib/lib8tion/scale8.h **** 
 142:./lib/lib8tion/scale8.h **** 
 143:./lib/lib8tion/scale8.h **** /// This version of scale8 does not clean up the R1 register on AVR
 144:./lib/lib8tion/scale8.h **** /// If you are doing several 'scale8's in a row, use this, and
 145:./lib/lib8tion/scale8.h **** /// then explicitly call cleanup_R1.
 146:./lib/lib8tion/scale8.h **** LIB8STATIC_ALWAYS_INLINE uint8_t scale8_LEAVING_R1_DIRTY( uint8_t i, fract8 scale)
 147:./lib/lib8tion/scale8.h **** {
 148:./lib/lib8tion/scale8.h **** #if SCALE8_C == 1
 149:./lib/lib8tion/scale8.h **** #if (FASTLED_SCALE8_FIXED == 1)
 150:./lib/lib8tion/scale8.h ****     return (((uint16_t)i) * ((uint16_t)(scale)+1)) >> 8;
 151:./lib/lib8tion/scale8.h **** #else
 152:./lib/lib8tion/scale8.h ****     return ((int)i * (int)(scale) ) >> 8;
 153:./lib/lib8tion/scale8.h **** #endif
 154:./lib/lib8tion/scale8.h **** #elif SCALE8_AVRASM == 1
 155:./lib/lib8tion/scale8.h ****     asm volatile(
 156:./lib/lib8tion/scale8.h ****       #if (FASTLED_SCALE8_FIXED==1)
 157:./lib/lib8tion/scale8.h ****               // Multiply 8-bit i * 8-bit scale, giving 16-bit r1,r0
 158:./lib/lib8tion/scale8.h ****               "mul %0, %1          \n\t"
 159:./lib/lib8tion/scale8.h ****               // Add i to r0, possibly setting the carry flag
 160:./lib/lib8tion/scale8.h ****               "add r0, %0         \n\t"
 161:./lib/lib8tion/scale8.h ****               // load the immediate 0 into i (note, this does _not_ touch any flags)
 162:./lib/lib8tion/scale8.h ****               "ldi %0, 0x00       \n\t"
 163:./lib/lib8tion/scale8.h ****               // walk and chew gum at the same time
 164:./lib/lib8tion/scale8.h ****               "adc %0, r1          \n\t"
 165:./lib/lib8tion/scale8.h ****       #else
 166:./lib/lib8tion/scale8.h ****          /* Multiply 8-bit i * 8-bit scale, giving 16-bit r1,r0 */
 167:./lib/lib8tion/scale8.h ****          "mul %0, %1    \n\t"
 168:./lib/lib8tion/scale8.h ****          /* Move the high 8-bits of the product (r1) back to i */
 169:./lib/lib8tion/scale8.h ****          "mov %0, r1    \n\t"
 170:./lib/lib8tion/scale8.h ****       #endif
 171:./lib/lib8tion/scale8.h ****          /* R1 IS LEFT DIRTY HERE; YOU MUST ZERO IT OUT YOURSELF  */
 172:./lib/lib8tion/scale8.h ****          /* "clr __zero_reg__    \n\t" */
 173:./lib/lib8tion/scale8.h **** 
 174:./lib/lib8tion/scale8.h ****          : "+a" (i)      /* writes to i */
 175:./lib/lib8tion/scale8.h ****          : "a"  (scale)  /* uses scale */
 176:./lib/lib8tion/scale8.h ****          : "r0", "r1"    /* clobbers r0, r1 */ );
 177:./lib/lib8tion/scale8.h **** 
 178:./lib/lib8tion/scale8.h ****     // Return the result
 179:./lib/lib8tion/scale8.h ****     return i;
 180:./lib/lib8tion/scale8.h **** #else
 181:./lib/lib8tion/scale8.h **** #error "No implementation for scale8_LEAVING_R1_DIRTY available."
 182:./lib/lib8tion/scale8.h **** #endif
 183:./lib/lib8tion/scale8.h **** }
 184:./lib/lib8tion/scale8.h **** 
 185:./lib/lib8tion/scale8.h **** 
 186:./lib/lib8tion/scale8.h **** /// This version of scale8_video does not clean up the R1 register on AVR
 187:./lib/lib8tion/scale8.h **** /// If you are doing several 'scale8_video's in a row, use this, and
 188:./lib/lib8tion/scale8.h **** /// then explicitly call cleanup_R1.
 189:./lib/lib8tion/scale8.h **** LIB8STATIC_ALWAYS_INLINE uint8_t scale8_video_LEAVING_R1_DIRTY( uint8_t i, fract8 scale)
 190:./lib/lib8tion/scale8.h **** {
 191:./lib/lib8tion/scale8.h **** #if SCALE8_C == 1 || defined(LIB8_ATTINY)
 192:./lib/lib8tion/scale8.h ****     uint8_t j = (((int)i * (int)scale) >> 8) + ((i&&scale)?1:0);
 193:./lib/lib8tion/scale8.h ****     // uint8_t nonzeroscale = (scale != 0) ? 1 : 0;
 194:./lib/lib8tion/scale8.h ****     // uint8_t j = (i == 0) ? 0 : (((int)i * (int)(scale) ) >> 8) + nonzeroscale;
 195:./lib/lib8tion/scale8.h ****     return j;
 196:./lib/lib8tion/scale8.h **** #elif SCALE8_AVRASM == 1
 197:./lib/lib8tion/scale8.h ****     uint8_t j=0;
 198:./lib/lib8tion/scale8.h ****     asm volatile(
 199:./lib/lib8tion/scale8.h ****         "  tst %[i]\n\t"
 200:./lib/lib8tion/scale8.h ****         "  breq L_%=\n\t"
 201:./lib/lib8tion/scale8.h ****         "  mul %[i], %[scale]\n\t"
 202:./lib/lib8tion/scale8.h ****         "  mov %[j], r1\n\t"
 203:./lib/lib8tion/scale8.h ****         "  breq L_%=\n\t"
 204:./lib/lib8tion/scale8.h ****         "  subi %[j], 0xFF\n\t"
 205:./lib/lib8tion/scale8.h ****         "L_%=: \n\t"
 206:./lib/lib8tion/scale8.h ****         : [j] "+a" (j)
 207:./lib/lib8tion/scale8.h ****         : [i] "a" (i), [scale] "a" (scale)
 208:./lib/lib8tion/scale8.h ****         : "r0", "r1");
 209:./lib/lib8tion/scale8.h **** 
 210:./lib/lib8tion/scale8.h ****     return j;
 211:./lib/lib8tion/scale8.h ****     // uint8_t nonzeroscale = (scale != 0) ? 1 : 0;
 212:./lib/lib8tion/scale8.h ****     // asm volatile(
 213:./lib/lib8tion/scale8.h ****     //      "      tst %0           \n"
 214:./lib/lib8tion/scale8.h ****     //      "      breq L_%=        \n"
 215:./lib/lib8tion/scale8.h ****     //      "      mul %0, %1       \n"
 216:./lib/lib8tion/scale8.h ****     //      "      mov %0, r1       \n"
 217:./lib/lib8tion/scale8.h ****     //      "      add %0, %2       \n"
 218:./lib/lib8tion/scale8.h ****     //      "      clr __zero_reg__ \n"
 219:./lib/lib8tion/scale8.h ****     //      "L_%=:                  \n"
 220:./lib/lib8tion/scale8.h **** 
 221:./lib/lib8tion/scale8.h ****     //      : "+a" (i)
 222:./lib/lib8tion/scale8.h ****     //      : "a" (scale), "a" (nonzeroscale)
 223:./lib/lib8tion/scale8.h ****     //      : "r0", "r1");
 224:./lib/lib8tion/scale8.h **** 
 225:./lib/lib8tion/scale8.h ****     // // Return the result
 226:./lib/lib8tion/scale8.h ****     // return i;
 227:./lib/lib8tion/scale8.h **** #else
 228:./lib/lib8tion/scale8.h **** #error "No implementation for scale8_video_LEAVING_R1_DIRTY available."
 229:./lib/lib8tion/scale8.h **** #endif
 230:./lib/lib8tion/scale8.h **** }
 231:./lib/lib8tion/scale8.h **** 
 232:./lib/lib8tion/scale8.h **** /// Clean up the r1 register after a series of *LEAVING_R1_DIRTY calls
 233:./lib/lib8tion/scale8.h **** LIB8STATIC_ALWAYS_INLINE void cleanup_R1(void)
 234:./lib/lib8tion/scale8.h **** {
 235:./lib/lib8tion/scale8.h **** #if CLEANUP_R1_AVRASM == 1
 236:./lib/lib8tion/scale8.h ****     // Restore r1 to "0"; it's expected to always be that
 237:./lib/lib8tion/scale8.h ****     asm volatile( "clr __zero_reg__  \n\t" : : : "r1" );
 238:./lib/lib8tion/scale8.h **** #endif
 239:./lib/lib8tion/scale8.h **** }
 240:./lib/lib8tion/scale8.h **** 
 241:./lib/lib8tion/scale8.h **** 
 242:./lib/lib8tion/scale8.h **** /// scale a 16-bit unsigned value by an 8-bit value,
 243:./lib/lib8tion/scale8.h **** ///         considered as numerator of a fraction whose denominator
 244:./lib/lib8tion/scale8.h **** ///         is 256. In other words, it computes i * (scale / 256)
 245:./lib/lib8tion/scale8.h **** 
 246:./lib/lib8tion/scale8.h **** LIB8STATIC_ALWAYS_INLINE uint16_t scale16by8( uint16_t i, fract8 scale )
 247:./lib/lib8tion/scale8.h **** {
  16               		.loc 1 247 1 view -0
  17               		.cfi_startproc
  18               	/* prologue: function */
  19               	/* frame size = 0 */
  20               	/* stack size = 0 */
  21               	.L__stack_usage = 0
 248:./lib/lib8tion/scale8.h **** #if SCALE16BY8_C == 1
 249:./lib/lib8tion/scale8.h ****     uint16_t result;
 250:./lib/lib8tion/scale8.h **** #if FASTLED_SCALE8_FIXED == 1
 251:./lib/lib8tion/scale8.h ****     result = (i * (1+((uint16_t)scale))) >> 8;
 252:./lib/lib8tion/scale8.h **** #else
 253:./lib/lib8tion/scale8.h ****     result = (i * scale) / 256;
 254:./lib/lib8tion/scale8.h **** #endif
 255:./lib/lib8tion/scale8.h ****     return result;
 256:./lib/lib8tion/scale8.h **** #elif SCALE16BY8_AVRASM == 1
 257:./lib/lib8tion/scale8.h **** #if FASTLED_SCALE8_FIXED == 1
 258:./lib/lib8tion/scale8.h ****     uint16_t result = 0;
 259:./lib/lib8tion/scale8.h ****     asm volatile(
 260:./lib/lib8tion/scale8.h ****                  // result.A = HighByte( (i.A x scale) + i.A )
 261:./lib/lib8tion/scale8.h ****                  "  mul %A[i], %[scale]                 \n\t"
 262:./lib/lib8tion/scale8.h ****                  "  add r0, %A[i]                       \n\t"
 263:./lib/lib8tion/scale8.h ****             //   "  adc r1, [zero]                      \n\t"
 264:./lib/lib8tion/scale8.h ****             //   "  mov %A[result], r1                  \n\t"
 265:./lib/lib8tion/scale8.h ****                  "  adc %A[result], r1                  \n\t"
 266:./lib/lib8tion/scale8.h **** 
 267:./lib/lib8tion/scale8.h ****                  // result.A-B += i.B x scale
 268:./lib/lib8tion/scale8.h ****                  "  mul %B[i], %[scale]                 \n\t"
 269:./lib/lib8tion/scale8.h ****                  "  add %A[result], r0                  \n\t"
 270:./lib/lib8tion/scale8.h ****                  "  adc %B[result], r1                  \n\t"
 271:./lib/lib8tion/scale8.h **** 
 272:./lib/lib8tion/scale8.h ****                  // cleanup r1
 273:./lib/lib8tion/scale8.h ****                  "  clr __zero_reg__                    \n\t"
 274:./lib/lib8tion/scale8.h **** 
 275:./lib/lib8tion/scale8.h ****                  // result.A-B += i.B
 276:./lib/lib8tion/scale8.h ****                  "  add %A[result], %B[i]               \n\t"
 277:./lib/lib8tion/scale8.h ****                  "  adc %B[result], __zero_reg__        \n\t"
 278:./lib/lib8tion/scale8.h **** 
 279:./lib/lib8tion/scale8.h ****                  : [result] "+r" (result)
 280:./lib/lib8tion/scale8.h ****                  : [i] "r" (i), [scale] "r" (scale)
 281:./lib/lib8tion/scale8.h ****                  : "r0", "r1"
 282:./lib/lib8tion/scale8.h ****                  );
 283:./lib/lib8tion/scale8.h ****     return result;
 284:./lib/lib8tion/scale8.h **** #else
 285:./lib/lib8tion/scale8.h ****     uint16_t result = 0;
  22               		.loc 1 285 5 view .LVU1
 286:./lib/lib8tion/scale8.h ****     asm volatile(
  23               		.loc 1 286 5 view .LVU2
  24 0000 30E0      		ldi r19,0
  25 0002 20E0      		ldi r18,0
  26               	/* #APP */
  27               	 ;  286 "./lib/lib8tion/scale8.h" 1
  28 0004 869F      		  mul r24, r22                 
  29 0006 212D      		  mov r18, r1                  
  30 0008 969F      		  mul r25, r22                 
  31 000a 200D      		  add r18, r0                  
  32 000c 311D      		  adc r19, r1                  
  33 000e 1124      		  clr __zero_reg__                    
  34               		
  35               	 ;  0 "" 2
  36               	.LVL1:
 287:./lib/lib8tion/scale8.h ****          // result.A = HighByte(i.A x j )
 288:./lib/lib8tion/scale8.h ****          "  mul %A[i], %[scale]                 \n\t"
 289:./lib/lib8tion/scale8.h ****          "  mov %A[result], r1                  \n\t"
 290:./lib/lib8tion/scale8.h ****          //"  clr %B[result]                      \n\t"
 291:./lib/lib8tion/scale8.h **** 
 292:./lib/lib8tion/scale8.h ****          // result.A-B += i.B x j
 293:./lib/lib8tion/scale8.h ****          "  mul %B[i], %[scale]                 \n\t"
 294:./lib/lib8tion/scale8.h ****          "  add %A[result], r0                  \n\t"
 295:./lib/lib8tion/scale8.h ****          "  adc %B[result], r1                  \n\t"
 296:./lib/lib8tion/scale8.h **** 
 297:./lib/lib8tion/scale8.h ****          // cleanup r1
 298:./lib/lib8tion/scale8.h ****          "  clr __zero_reg__                    \n\t"
 299:./lib/lib8tion/scale8.h **** 
 300:./lib/lib8tion/scale8.h ****          : [result] "+r" (result)
 301:./lib/lib8tion/scale8.h ****          : [i] "r" (i), [scale] "r" (scale)
 302:./lib/lib8tion/scale8.h ****          : "r0", "r1"
 303:./lib/lib8tion/scale8.h ****          );
 304:./lib/lib8tion/scale8.h ****     return result;
  37               		.loc 1 304 5 view .LVU3
 305:./lib/lib8tion/scale8.h **** #endif
 306:./lib/lib8tion/scale8.h **** #else
 307:./lib/lib8tion/scale8.h ****     #error "No implementation for scale16by8 available."
 308:./lib/lib8tion/scale8.h **** #endif
 309:./lib/lib8tion/scale8.h **** }
  38               		.loc 1 309 1 is_stmt 0 view .LVU4
  39               	/* #NOAPP */
  40 0010 C901      		movw r24,r18
  41               	.LVL2:
  42               	/* epilogue start */
  43               		.loc 1 309 1 view .LVU5
  44 0012 0895      		ret
  45               		.cfi_endproc
  46               	.LFE29:
  48               		.section	.text.sqrt16,"ax",@progbits
  50               	sqrt16:
  51               	.LVL3:
  52               	.LFB53:
  53               		.file 2 "./lib/lib8tion/math8.h"
   1:./lib/lib8tion/math8.h **** #ifndef __INC_LIB8TION_MATH_H
   2:./lib/lib8tion/math8.h **** #define __INC_LIB8TION_MATH_H
   3:./lib/lib8tion/math8.h **** 
   4:./lib/lib8tion/math8.h **** #include "scale8.h"
   5:./lib/lib8tion/math8.h **** 
   6:./lib/lib8tion/math8.h **** ///@ingroup lib8tion
   7:./lib/lib8tion/math8.h **** 
   8:./lib/lib8tion/math8.h **** ///@defgroup Math Basic math operations
   9:./lib/lib8tion/math8.h **** /// Fast, efficient 8-bit math functions specifically
  10:./lib/lib8tion/math8.h **** /// designed for high-performance LED programming.
  11:./lib/lib8tion/math8.h **** ///
  12:./lib/lib8tion/math8.h **** /// Because of the AVR(Arduino) and ARM assembly language
  13:./lib/lib8tion/math8.h **** /// implementations provided, using these functions often
  14:./lib/lib8tion/math8.h **** /// results in smaller and faster code than the equivalent
  15:./lib/lib8tion/math8.h **** /// program using plain "C" arithmetic and logic.
  16:./lib/lib8tion/math8.h **** ///@{
  17:./lib/lib8tion/math8.h **** 
  18:./lib/lib8tion/math8.h **** 
  19:./lib/lib8tion/math8.h **** /// add one byte to another, saturating at 0xFF
  20:./lib/lib8tion/math8.h **** /// @param i - first byte to add
  21:./lib/lib8tion/math8.h **** /// @param j - second byte to add
  22:./lib/lib8tion/math8.h **** /// @returns the sum of i & j, capped at 0xFF
  23:./lib/lib8tion/math8.h **** LIB8STATIC_ALWAYS_INLINE uint8_t qadd8( uint8_t i, uint8_t j)
  24:./lib/lib8tion/math8.h **** {
  25:./lib/lib8tion/math8.h **** #if QADD8_C == 1
  26:./lib/lib8tion/math8.h ****     uint16_t t = i + j;
  27:./lib/lib8tion/math8.h ****     if (t > 255) t = 255;
  28:./lib/lib8tion/math8.h ****     return t;
  29:./lib/lib8tion/math8.h **** #elif QADD8_AVRASM == 1
  30:./lib/lib8tion/math8.h ****     asm volatile(
  31:./lib/lib8tion/math8.h ****          /* First, add j to i, conditioning the C flag */
  32:./lib/lib8tion/math8.h ****          "add %0, %1    \n\t"
  33:./lib/lib8tion/math8.h **** 
  34:./lib/lib8tion/math8.h ****          /* Now test the C flag.
  35:./lib/lib8tion/math8.h ****            If C is clear, we branch around a load of 0xFF into i.
  36:./lib/lib8tion/math8.h ****            If C is set, we go ahead and load 0xFF into i.
  37:./lib/lib8tion/math8.h ****          */
  38:./lib/lib8tion/math8.h ****          "brcc L_%=     \n\t"
  39:./lib/lib8tion/math8.h ****          "ldi %0, 0xFF  \n\t"
  40:./lib/lib8tion/math8.h ****          "L_%=: "
  41:./lib/lib8tion/math8.h ****          : "+a" (i)
  42:./lib/lib8tion/math8.h ****          : "a"  (j) );
  43:./lib/lib8tion/math8.h ****     return i;
  44:./lib/lib8tion/math8.h **** #elif QADD8_ARM_DSP_ASM == 1
  45:./lib/lib8tion/math8.h ****     asm volatile( "uqadd8 %0, %0, %1" : "+r" (i) : "r" (j));
  46:./lib/lib8tion/math8.h ****     return i;
  47:./lib/lib8tion/math8.h **** #else
  48:./lib/lib8tion/math8.h **** #error "No implementation for qadd8 available."
  49:./lib/lib8tion/math8.h **** #endif
  50:./lib/lib8tion/math8.h **** }
  51:./lib/lib8tion/math8.h **** 
  52:./lib/lib8tion/math8.h **** /// Add one byte to another, saturating at 0x7F
  53:./lib/lib8tion/math8.h **** /// @param i - first byte to add
  54:./lib/lib8tion/math8.h **** /// @param j - second byte to add
  55:./lib/lib8tion/math8.h **** /// @returns the sum of i & j, capped at 0xFF
  56:./lib/lib8tion/math8.h **** LIB8STATIC_ALWAYS_INLINE int8_t qadd7( int8_t i, int8_t j)
  57:./lib/lib8tion/math8.h **** {
  58:./lib/lib8tion/math8.h **** #if QADD7_C == 1
  59:./lib/lib8tion/math8.h ****     int16_t t = i + j;
  60:./lib/lib8tion/math8.h ****     if (t > 127) t = 127;
  61:./lib/lib8tion/math8.h ****     return t;
  62:./lib/lib8tion/math8.h **** #elif QADD7_AVRASM == 1
  63:./lib/lib8tion/math8.h ****     asm volatile(
  64:./lib/lib8tion/math8.h ****          /* First, add j to i, conditioning the V flag */
  65:./lib/lib8tion/math8.h ****          "add %0, %1    \n\t"
  66:./lib/lib8tion/math8.h **** 
  67:./lib/lib8tion/math8.h ****          /* Now test the V flag.
  68:./lib/lib8tion/math8.h ****           If V is clear, we branch around a load of 0x7F into i.
  69:./lib/lib8tion/math8.h ****           If V is set, we go ahead and load 0x7F into i.
  70:./lib/lib8tion/math8.h ****           */
  71:./lib/lib8tion/math8.h ****          "brvc L_%=     \n\t"
  72:./lib/lib8tion/math8.h ****          "ldi %0, 0x7F  \n\t"
  73:./lib/lib8tion/math8.h ****          "L_%=: "
  74:./lib/lib8tion/math8.h ****          : "+a" (i)
  75:./lib/lib8tion/math8.h ****          : "a"  (j) );
  76:./lib/lib8tion/math8.h **** 
  77:./lib/lib8tion/math8.h ****     return i;
  78:./lib/lib8tion/math8.h **** #elif QADD7_ARM_DSP_ASM == 1
  79:./lib/lib8tion/math8.h ****     asm volatile( "qadd8 %0, %0, %1" : "+r" (i) : "r" (j));
  80:./lib/lib8tion/math8.h ****     return i;
  81:./lib/lib8tion/math8.h **** #else
  82:./lib/lib8tion/math8.h **** #error "No implementation for qadd7 available."
  83:./lib/lib8tion/math8.h **** #endif
  84:./lib/lib8tion/math8.h **** }
  85:./lib/lib8tion/math8.h **** 
  86:./lib/lib8tion/math8.h **** /// subtract one byte from another, saturating at 0x00
  87:./lib/lib8tion/math8.h **** /// @returns i - j with a floor of 0
  88:./lib/lib8tion/math8.h **** LIB8STATIC_ALWAYS_INLINE uint8_t qsub8( uint8_t i, uint8_t j)
  89:./lib/lib8tion/math8.h **** {
  90:./lib/lib8tion/math8.h **** #if QSUB8_C == 1
  91:./lib/lib8tion/math8.h ****     int16_t t = i - j;
  92:./lib/lib8tion/math8.h ****     if (t < 0) t = 0;
  93:./lib/lib8tion/math8.h ****     return t;
  94:./lib/lib8tion/math8.h **** #elif QSUB8_AVRASM == 1
  95:./lib/lib8tion/math8.h **** 
  96:./lib/lib8tion/math8.h ****     asm volatile(
  97:./lib/lib8tion/math8.h ****          /* First, subtract j from i, conditioning the C flag */
  98:./lib/lib8tion/math8.h ****          "sub %0, %1    \n\t"
  99:./lib/lib8tion/math8.h **** 
 100:./lib/lib8tion/math8.h ****          /* Now test the C flag.
 101:./lib/lib8tion/math8.h ****           If C is clear, we branch around a load of 0x00 into i.
 102:./lib/lib8tion/math8.h ****           If C is set, we go ahead and load 0x00 into i.
 103:./lib/lib8tion/math8.h ****           */
 104:./lib/lib8tion/math8.h ****          "brcc L_%=     \n\t"
 105:./lib/lib8tion/math8.h ****          "ldi %0, 0x00  \n\t"
 106:./lib/lib8tion/math8.h ****          "L_%=: "
 107:./lib/lib8tion/math8.h ****          : "+a" (i)
 108:./lib/lib8tion/math8.h ****          : "a"  (j) );
 109:./lib/lib8tion/math8.h **** 
 110:./lib/lib8tion/math8.h ****     return i;
 111:./lib/lib8tion/math8.h **** #else
 112:./lib/lib8tion/math8.h **** #error "No implementation for qsub8 available."
 113:./lib/lib8tion/math8.h **** #endif
 114:./lib/lib8tion/math8.h **** }
 115:./lib/lib8tion/math8.h **** 
 116:./lib/lib8tion/math8.h **** /// add one byte to another, with one byte result
 117:./lib/lib8tion/math8.h **** LIB8STATIC_ALWAYS_INLINE uint8_t add8( uint8_t i, uint8_t j)
 118:./lib/lib8tion/math8.h **** {
 119:./lib/lib8tion/math8.h **** #if ADD8_C == 1
 120:./lib/lib8tion/math8.h ****     uint16_t t = i + j;
 121:./lib/lib8tion/math8.h ****     return t;
 122:./lib/lib8tion/math8.h **** #elif ADD8_AVRASM == 1
 123:./lib/lib8tion/math8.h ****     // Add j to i, period.
 124:./lib/lib8tion/math8.h ****     asm volatile( "add %0, %1" : "+a" (i) : "a" (j));
 125:./lib/lib8tion/math8.h ****     return i;
 126:./lib/lib8tion/math8.h **** #else
 127:./lib/lib8tion/math8.h **** #error "No implementation for add8 available."
 128:./lib/lib8tion/math8.h **** #endif
 129:./lib/lib8tion/math8.h **** }
 130:./lib/lib8tion/math8.h **** 
 131:./lib/lib8tion/math8.h **** /// add one byte to another, with one byte result
 132:./lib/lib8tion/math8.h **** LIB8STATIC_ALWAYS_INLINE uint16_t add8to16( uint8_t i, uint16_t j)
 133:./lib/lib8tion/math8.h **** {
 134:./lib/lib8tion/math8.h **** #if ADD8_C == 1
 135:./lib/lib8tion/math8.h ****     uint16_t t = i + j;
 136:./lib/lib8tion/math8.h ****     return t;
 137:./lib/lib8tion/math8.h **** #elif ADD8_AVRASM == 1
 138:./lib/lib8tion/math8.h ****     // Add i(one byte) to j(two bytes)
 139:./lib/lib8tion/math8.h ****     asm volatile( "add %A[j], %[i]              \n\t"
 140:./lib/lib8tion/math8.h ****                   "adc %B[j], __zero_reg__      \n\t"
 141:./lib/lib8tion/math8.h ****                  : [j] "+a" (j)
 142:./lib/lib8tion/math8.h ****                  : [i] "a"  (i)
 143:./lib/lib8tion/math8.h ****                  );
 144:./lib/lib8tion/math8.h ****     return i;
 145:./lib/lib8tion/math8.h **** #else
 146:./lib/lib8tion/math8.h **** #error "No implementation for add8to16 available."
 147:./lib/lib8tion/math8.h **** #endif
 148:./lib/lib8tion/math8.h **** }
 149:./lib/lib8tion/math8.h **** 
 150:./lib/lib8tion/math8.h **** 
 151:./lib/lib8tion/math8.h **** /// subtract one byte from another, 8-bit result
 152:./lib/lib8tion/math8.h **** LIB8STATIC_ALWAYS_INLINE uint8_t sub8( uint8_t i, uint8_t j)
 153:./lib/lib8tion/math8.h **** {
 154:./lib/lib8tion/math8.h **** #if SUB8_C == 1
 155:./lib/lib8tion/math8.h ****     int16_t t = i - j;
 156:./lib/lib8tion/math8.h ****     return t;
 157:./lib/lib8tion/math8.h **** #elif SUB8_AVRASM == 1
 158:./lib/lib8tion/math8.h ****     // Subtract j from i, period.
 159:./lib/lib8tion/math8.h ****     asm volatile( "sub %0, %1" : "+a" (i) : "a" (j));
 160:./lib/lib8tion/math8.h ****     return i;
 161:./lib/lib8tion/math8.h **** #else
 162:./lib/lib8tion/math8.h **** #error "No implementation for sub8 available."
 163:./lib/lib8tion/math8.h **** #endif
 164:./lib/lib8tion/math8.h **** }
 165:./lib/lib8tion/math8.h **** 
 166:./lib/lib8tion/math8.h **** /// Calculate an integer average of two unsigned
 167:./lib/lib8tion/math8.h **** ///       8-bit integer values (uint8_t).
 168:./lib/lib8tion/math8.h **** ///       Fractional results are rounded down, e.g. avg8(20,41) = 30
 169:./lib/lib8tion/math8.h **** LIB8STATIC_ALWAYS_INLINE uint8_t avg8( uint8_t i, uint8_t j)
 170:./lib/lib8tion/math8.h **** {
 171:./lib/lib8tion/math8.h **** #if AVG8_C == 1
 172:./lib/lib8tion/math8.h ****     return (i + j) >> 1;
 173:./lib/lib8tion/math8.h **** #elif AVG8_AVRASM == 1
 174:./lib/lib8tion/math8.h ****     asm volatile(
 175:./lib/lib8tion/math8.h ****          /* First, add j to i, 9th bit overflows into C flag */
 176:./lib/lib8tion/math8.h ****          "add %0, %1    \n\t"
 177:./lib/lib8tion/math8.h ****          /* Divide by two, moving C flag into high 8th bit */
 178:./lib/lib8tion/math8.h ****          "ror %0        \n\t"
 179:./lib/lib8tion/math8.h ****          : "+a" (i)
 180:./lib/lib8tion/math8.h ****          : "a"  (j) );
 181:./lib/lib8tion/math8.h ****     return i;
 182:./lib/lib8tion/math8.h **** #else
 183:./lib/lib8tion/math8.h **** #error "No implementation for avg8 available."
 184:./lib/lib8tion/math8.h **** #endif
 185:./lib/lib8tion/math8.h **** }
 186:./lib/lib8tion/math8.h **** 
 187:./lib/lib8tion/math8.h **** /// Calculate an integer average of two unsigned
 188:./lib/lib8tion/math8.h **** ///       16-bit integer values (uint16_t).
 189:./lib/lib8tion/math8.h **** ///       Fractional results are rounded down, e.g. avg16(20,41) = 30
 190:./lib/lib8tion/math8.h **** LIB8STATIC_ALWAYS_INLINE uint16_t avg16( uint16_t i, uint16_t j)
 191:./lib/lib8tion/math8.h **** {
 192:./lib/lib8tion/math8.h **** #if AVG16_C == 1
 193:./lib/lib8tion/math8.h ****     return (uint32_t)((uint32_t)(i) + (uint32_t)(j)) >> 1;
 194:./lib/lib8tion/math8.h **** #elif AVG16_AVRASM == 1
 195:./lib/lib8tion/math8.h ****     asm volatile(
 196:./lib/lib8tion/math8.h ****                  /* First, add jLo (heh) to iLo, 9th bit overflows into C flag */
 197:./lib/lib8tion/math8.h ****                  "add %A[i], %A[j]    \n\t"
 198:./lib/lib8tion/math8.h ****                  /* Now, add C + jHi to iHi, 17th bit overflows into C flag */
 199:./lib/lib8tion/math8.h ****                  "adc %B[i], %B[j]    \n\t"
 200:./lib/lib8tion/math8.h ****                  /* Divide iHi by two, moving C flag into high 16th bit, old 9th bit now in C */
 201:./lib/lib8tion/math8.h ****                  "ror %B[i]        \n\t"
 202:./lib/lib8tion/math8.h ****                  /* Divide iLo by two, moving C flag into high 8th bit */
 203:./lib/lib8tion/math8.h ****                  "ror %A[i]        \n\t"
 204:./lib/lib8tion/math8.h ****                  : [i] "+a" (i)
 205:./lib/lib8tion/math8.h ****                  : [j] "a"  (j) );
 206:./lib/lib8tion/math8.h ****     return i;
 207:./lib/lib8tion/math8.h **** #else
 208:./lib/lib8tion/math8.h **** #error "No implementation for avg16 available."
 209:./lib/lib8tion/math8.h **** #endif
 210:./lib/lib8tion/math8.h **** }
 211:./lib/lib8tion/math8.h **** 
 212:./lib/lib8tion/math8.h **** 
 213:./lib/lib8tion/math8.h **** /// Calculate an integer average of two signed 7-bit
 214:./lib/lib8tion/math8.h **** ///       integers (int8_t)
 215:./lib/lib8tion/math8.h **** ///       If the first argument is even, result is rounded down.
 216:./lib/lib8tion/math8.h **** ///       If the first argument is odd, result is result up.
 217:./lib/lib8tion/math8.h **** LIB8STATIC_ALWAYS_INLINE int8_t avg7( int8_t i, int8_t j)
 218:./lib/lib8tion/math8.h **** {
 219:./lib/lib8tion/math8.h **** #if AVG7_C == 1
 220:./lib/lib8tion/math8.h ****     return ((i + j) >> 1) + (i & 0x1);
 221:./lib/lib8tion/math8.h **** #elif AVG7_AVRASM == 1
 222:./lib/lib8tion/math8.h ****     asm volatile(
 223:./lib/lib8tion/math8.h ****                  "asr %1        \n\t"
 224:./lib/lib8tion/math8.h ****                  "asr %0        \n\t"
 225:./lib/lib8tion/math8.h ****                  "adc %0, %1    \n\t"
 226:./lib/lib8tion/math8.h ****                  : "+a" (i)
 227:./lib/lib8tion/math8.h ****                  : "a"  (j) );
 228:./lib/lib8tion/math8.h ****     return i;
 229:./lib/lib8tion/math8.h **** #else
 230:./lib/lib8tion/math8.h **** #error "No implementation for avg7 available."
 231:./lib/lib8tion/math8.h **** #endif
 232:./lib/lib8tion/math8.h **** }
 233:./lib/lib8tion/math8.h **** 
 234:./lib/lib8tion/math8.h **** /// Calculate an integer average of two signed 15-bit
 235:./lib/lib8tion/math8.h **** ///       integers (int16_t)
 236:./lib/lib8tion/math8.h **** ///       If the first argument is even, result is rounded down.
 237:./lib/lib8tion/math8.h **** ///       If the first argument is odd, result is result up.
 238:./lib/lib8tion/math8.h **** LIB8STATIC_ALWAYS_INLINE int16_t avg15( int16_t i, int16_t j)
 239:./lib/lib8tion/math8.h **** {
 240:./lib/lib8tion/math8.h **** #if AVG15_C == 1
 241:./lib/lib8tion/math8.h ****     return ((int32_t)((int32_t)(i) + (int32_t)(j)) >> 1) + (i & 0x1);
 242:./lib/lib8tion/math8.h **** #elif AVG15_AVRASM == 1
 243:./lib/lib8tion/math8.h ****     asm volatile(
 244:./lib/lib8tion/math8.h ****                  /* first divide j by 2, throwing away lowest bit */
 245:./lib/lib8tion/math8.h ****                  "asr %B[j]          \n\t"
 246:./lib/lib8tion/math8.h ****                  "ror %A[j]          \n\t"
 247:./lib/lib8tion/math8.h ****                  /* now divide i by 2, with lowest bit going into C */
 248:./lib/lib8tion/math8.h ****                  "asr %B[i]          \n\t"
 249:./lib/lib8tion/math8.h ****                  "ror %A[i]          \n\t"
 250:./lib/lib8tion/math8.h ****                  /* add j + C to i */
 251:./lib/lib8tion/math8.h ****                  "adc %A[i], %A[j]   \n\t"
 252:./lib/lib8tion/math8.h ****                  "adc %B[i], %B[j]   \n\t"
 253:./lib/lib8tion/math8.h ****                  : [i] "+a" (i)
 254:./lib/lib8tion/math8.h ****                  : [j] "a"  (j) );
 255:./lib/lib8tion/math8.h ****     return i;
 256:./lib/lib8tion/math8.h **** #else
 257:./lib/lib8tion/math8.h **** #error "No implementation for avg15 available."
 258:./lib/lib8tion/math8.h **** #endif
 259:./lib/lib8tion/math8.h **** }
 260:./lib/lib8tion/math8.h **** 
 261:./lib/lib8tion/math8.h **** 
 262:./lib/lib8tion/math8.h **** ///       Calculate the remainder of one unsigned 8-bit
 263:./lib/lib8tion/math8.h **** ///       value divided by anoter, aka A % M.
 264:./lib/lib8tion/math8.h **** ///       Implemented by repeated subtraction, which is
 265:./lib/lib8tion/math8.h **** ///       very compact, and very fast if A is 'probably'
 266:./lib/lib8tion/math8.h **** ///       less than M.  If A is a large multiple of M,
 267:./lib/lib8tion/math8.h **** ///       the loop has to execute multiple times.  However,
 268:./lib/lib8tion/math8.h **** ///       even in that case, the loop is only two
 269:./lib/lib8tion/math8.h **** ///       instructions long on AVR, i.e., quick.
 270:./lib/lib8tion/math8.h **** LIB8STATIC_ALWAYS_INLINE uint8_t mod8( uint8_t a, uint8_t m)
 271:./lib/lib8tion/math8.h **** {
 272:./lib/lib8tion/math8.h **** #if defined(__AVR__)
 273:./lib/lib8tion/math8.h ****     asm volatile (
 274:./lib/lib8tion/math8.h ****                   "L_%=:  sub %[a],%[m]    \n\t"
 275:./lib/lib8tion/math8.h ****                   "       brcc L_%=        \n\t"
 276:./lib/lib8tion/math8.h ****                   "       add %[a],%[m]    \n\t"
 277:./lib/lib8tion/math8.h ****                   : [a] "+r" (a)
 278:./lib/lib8tion/math8.h ****                   : [m] "r"  (m)
 279:./lib/lib8tion/math8.h ****                   );
 280:./lib/lib8tion/math8.h **** #else
 281:./lib/lib8tion/math8.h ****     while( a >= m) a -= m;
 282:./lib/lib8tion/math8.h **** #endif
 283:./lib/lib8tion/math8.h ****     return a;
 284:./lib/lib8tion/math8.h **** }
 285:./lib/lib8tion/math8.h **** 
 286:./lib/lib8tion/math8.h **** ///          Add two numbers, and calculate the modulo
 287:./lib/lib8tion/math8.h **** ///          of the sum and a third number, M.
 288:./lib/lib8tion/math8.h **** ///          In other words, it returns (A+B) % M.
 289:./lib/lib8tion/math8.h **** ///          It is designed as a compact mechanism for
 290:./lib/lib8tion/math8.h **** ///          incrementing a 'mode' switch and wrapping
 291:./lib/lib8tion/math8.h **** ///          around back to 'mode 0' when the switch
 292:./lib/lib8tion/math8.h **** ///          goes past the end of the available range.
 293:./lib/lib8tion/math8.h **** ///          e.g. if you have seven modes, this switches
 294:./lib/lib8tion/math8.h **** ///          to the next one and wraps around if needed:
 295:./lib/lib8tion/math8.h **** ///            mode = addmod8( mode, 1, 7);
 296:./lib/lib8tion/math8.h **** ///LIB8STATIC_ALWAYS_INLINESee 'mod8' for notes on performance.
 297:./lib/lib8tion/math8.h **** LIB8STATIC uint8_t addmod8( uint8_t a, uint8_t b, uint8_t m)
 298:./lib/lib8tion/math8.h **** {
 299:./lib/lib8tion/math8.h **** #if defined(__AVR__)
 300:./lib/lib8tion/math8.h ****     asm volatile (
 301:./lib/lib8tion/math8.h ****                   "       add %[a],%[b]    \n\t"
 302:./lib/lib8tion/math8.h ****                   "L_%=:  sub %[a],%[m]    \n\t"
 303:./lib/lib8tion/math8.h ****                   "       brcc L_%=        \n\t"
 304:./lib/lib8tion/math8.h ****                   "       add %[a],%[m]    \n\t"
 305:./lib/lib8tion/math8.h ****                   : [a] "+r" (a)
 306:./lib/lib8tion/math8.h ****                   : [b] "r"  (b), [m] "r" (m)
 307:./lib/lib8tion/math8.h ****                   );
 308:./lib/lib8tion/math8.h **** #else
 309:./lib/lib8tion/math8.h ****     a += b;
 310:./lib/lib8tion/math8.h ****     while( a >= m) a -= m;
 311:./lib/lib8tion/math8.h **** #endif
 312:./lib/lib8tion/math8.h ****     return a;
 313:./lib/lib8tion/math8.h **** }
 314:./lib/lib8tion/math8.h **** 
 315:./lib/lib8tion/math8.h **** ///          Subtract two numbers, and calculate the modulo
 316:./lib/lib8tion/math8.h **** ///          of the difference and a third number, M.
 317:./lib/lib8tion/math8.h **** ///          In other words, it returns (A-B) % M.
 318:./lib/lib8tion/math8.h **** ///          It is designed as a compact mechanism for
 319:./lib/lib8tion/math8.h **** ///          incrementing a 'mode' switch and wrapping
 320:./lib/lib8tion/math8.h **** ///          around back to 'mode 0' when the switch
 321:./lib/lib8tion/math8.h **** ///          goes past the end of the available range.
 322:./lib/lib8tion/math8.h **** ///          e.g. if you have seven modes, this switches
 323:./lib/lib8tion/math8.h **** ///          to the next one and wraps around if needed:
 324:./lib/lib8tion/math8.h **** ///            mode = addmod8( mode, 1, 7);
 325:./lib/lib8tion/math8.h **** ///LIB8STATIC_ALWAYS_INLINESee 'mod8' for notes on performance.
 326:./lib/lib8tion/math8.h **** LIB8STATIC uint8_t submod8( uint8_t a, uint8_t b, uint8_t m)
 327:./lib/lib8tion/math8.h **** {
 328:./lib/lib8tion/math8.h **** #if defined(__AVR__)
 329:./lib/lib8tion/math8.h ****     asm volatile (
 330:./lib/lib8tion/math8.h ****                   "       sub %[a],%[b]    \n\t"
 331:./lib/lib8tion/math8.h ****                   "L_%=:  sub %[a],%[m]    \n\t"
 332:./lib/lib8tion/math8.h ****                   "       brcc L_%=        \n\t"
 333:./lib/lib8tion/math8.h ****                   "       add %[a],%[m]    \n\t"
 334:./lib/lib8tion/math8.h ****                   : [a] "+r" (a)
 335:./lib/lib8tion/math8.h ****                   : [b] "r"  (b), [m] "r" (m)
 336:./lib/lib8tion/math8.h ****                   );
 337:./lib/lib8tion/math8.h **** #else
 338:./lib/lib8tion/math8.h ****     a -= b;
 339:./lib/lib8tion/math8.h ****     while( a >= m) a -= m;
 340:./lib/lib8tion/math8.h **** #endif
 341:./lib/lib8tion/math8.h ****     return a;
 342:./lib/lib8tion/math8.h **** }
 343:./lib/lib8tion/math8.h **** 
 344:./lib/lib8tion/math8.h **** /// 8x8 bit multiplication, with 8 bit result
 345:./lib/lib8tion/math8.h **** LIB8STATIC_ALWAYS_INLINE uint8_t mul8( uint8_t i, uint8_t j)
 346:./lib/lib8tion/math8.h **** {
 347:./lib/lib8tion/math8.h **** #if MUL8_C == 1
 348:./lib/lib8tion/math8.h ****     return ((uint16_t)i * (uint16_t)(j) ) & 0xFF;
 349:./lib/lib8tion/math8.h **** #elif MUL8_AVRASM == 1
 350:./lib/lib8tion/math8.h ****     asm volatile(
 351:./lib/lib8tion/math8.h ****          /* Multiply 8-bit i * 8-bit j, giving 16-bit r1,r0 */
 352:./lib/lib8tion/math8.h ****          "mul %0, %1          \n\t"
 353:./lib/lib8tion/math8.h ****          /* Extract the LOW 8-bits (r0) */
 354:./lib/lib8tion/math8.h ****          "mov %0, r0          \n\t"
 355:./lib/lib8tion/math8.h ****          /* Restore r1 to "0"; it's expected to always be that */
 356:./lib/lib8tion/math8.h ****          "clr __zero_reg__    \n\t"
 357:./lib/lib8tion/math8.h ****          : "+a" (i)
 358:./lib/lib8tion/math8.h ****          : "a"  (j)
 359:./lib/lib8tion/math8.h ****          : "r0", "r1");
 360:./lib/lib8tion/math8.h **** 
 361:./lib/lib8tion/math8.h ****     return i;
 362:./lib/lib8tion/math8.h **** #else
 363:./lib/lib8tion/math8.h **** #error "No implementation for mul8 available."
 364:./lib/lib8tion/math8.h **** #endif
 365:./lib/lib8tion/math8.h **** }
 366:./lib/lib8tion/math8.h **** 
 367:./lib/lib8tion/math8.h **** 
 368:./lib/lib8tion/math8.h **** /// saturating 8x8 bit multiplication, with 8 bit result
 369:./lib/lib8tion/math8.h **** /// @returns the product of i * j, capping at 0xFF
 370:./lib/lib8tion/math8.h **** LIB8STATIC_ALWAYS_INLINE uint8_t qmul8( uint8_t i, uint8_t j)
 371:./lib/lib8tion/math8.h **** {
 372:./lib/lib8tion/math8.h **** #if QMUL8_C == 1
 373:./lib/lib8tion/math8.h ****     int p = ((uint16_t)i * (uint16_t)(j) );
 374:./lib/lib8tion/math8.h ****     if( p > 255) p = 255;
 375:./lib/lib8tion/math8.h ****     return p;
 376:./lib/lib8tion/math8.h **** #elif QMUL8_AVRASM == 1
 377:./lib/lib8tion/math8.h ****     asm volatile(
 378:./lib/lib8tion/math8.h ****                  /* Multiply 8-bit i * 8-bit j, giving 16-bit r1,r0 */
 379:./lib/lib8tion/math8.h ****                  "  mul %0, %1          \n\t"
 380:./lib/lib8tion/math8.h ****                  /* If high byte of result is zero, all is well. */
 381:./lib/lib8tion/math8.h ****                  "  tst r1              \n\t"
 382:./lib/lib8tion/math8.h ****                  "  breq Lnospill_%=    \n\t"
 383:./lib/lib8tion/math8.h ****                  /* If high byte of result > 0, saturate low byte to 0xFF */
 384:./lib/lib8tion/math8.h ****                  "  ldi %0,0xFF         \n\t"
 385:./lib/lib8tion/math8.h ****                  "  rjmp Ldone_%=       \n\t"
 386:./lib/lib8tion/math8.h ****                  "Lnospill_%=:          \n\t"
 387:./lib/lib8tion/math8.h ****                  /* Extract the LOW 8-bits (r0) */
 388:./lib/lib8tion/math8.h ****                  "  mov %0, r0          \n\t"
 389:./lib/lib8tion/math8.h ****                  "Ldone_%=:             \n\t"
 390:./lib/lib8tion/math8.h ****                  /* Restore r1 to "0"; it's expected to always be that */
 391:./lib/lib8tion/math8.h ****                  "  clr __zero_reg__    \n\t"
 392:./lib/lib8tion/math8.h ****                  : "+a" (i)
 393:./lib/lib8tion/math8.h ****                  : "a"  (j)
 394:./lib/lib8tion/math8.h ****                  : "r0", "r1");
 395:./lib/lib8tion/math8.h **** 
 396:./lib/lib8tion/math8.h ****     return i;
 397:./lib/lib8tion/math8.h **** #else
 398:./lib/lib8tion/math8.h **** #error "No implementation for qmul8 available."
 399:./lib/lib8tion/math8.h **** #endif
 400:./lib/lib8tion/math8.h **** }
 401:./lib/lib8tion/math8.h **** 
 402:./lib/lib8tion/math8.h **** 
 403:./lib/lib8tion/math8.h **** /// take abs() of a signed 8-bit uint8_t
 404:./lib/lib8tion/math8.h **** LIB8STATIC_ALWAYS_INLINE int8_t abs8( int8_t i)
 405:./lib/lib8tion/math8.h **** {
 406:./lib/lib8tion/math8.h **** #if ABS8_C == 1
 407:./lib/lib8tion/math8.h ****     if( i < 0) i = -i;
 408:./lib/lib8tion/math8.h ****     return i;
 409:./lib/lib8tion/math8.h **** #elif ABS8_AVRASM == 1
 410:./lib/lib8tion/math8.h **** 
 411:./lib/lib8tion/math8.h **** 
 412:./lib/lib8tion/math8.h ****     asm volatile(
 413:./lib/lib8tion/math8.h ****          /* First, check the high bit, and prepare to skip if it's clear */
 414:./lib/lib8tion/math8.h ****          "sbrc %0, 7 \n"
 415:./lib/lib8tion/math8.h **** 
 416:./lib/lib8tion/math8.h ****          /* Negate the value */
 417:./lib/lib8tion/math8.h ****          "neg %0     \n"
 418:./lib/lib8tion/math8.h **** 
 419:./lib/lib8tion/math8.h ****          : "+r" (i) : "r" (i) );
 420:./lib/lib8tion/math8.h ****     return i;
 421:./lib/lib8tion/math8.h **** #else
 422:./lib/lib8tion/math8.h **** #error "No implementation for abs8 available."
 423:./lib/lib8tion/math8.h **** #endif
 424:./lib/lib8tion/math8.h **** }
 425:./lib/lib8tion/math8.h **** 
 426:./lib/lib8tion/math8.h **** ///         square root for 16-bit integers
 427:./lib/lib8tion/math8.h **** ///         About three times faster and five times smaller
 428:./lib/lib8tion/math8.h **** ///         than Arduino's general sqrt on AVR.
 429:./lib/lib8tion/math8.h **** LIB8STATIC uint8_t sqrt16(uint16_t x)
 430:./lib/lib8tion/math8.h **** {
  54               		.loc 2 430 1 is_stmt 1 view -0
  55               		.cfi_startproc
  56               	/* prologue: function */
  57               	/* frame size = 0 */
  58               	/* stack size = 0 */
  59               	.L__stack_usage = 0
  60               		.loc 2 430 1 is_stmt 0 view .LVU7
  61 0000 AC01      		movw r20,r24
 431:./lib/lib8tion/math8.h ****     if( x <= 1) {
  62               		.loc 2 431 5 is_stmt 1 view .LVU8
  63               		.loc 2 431 7 is_stmt 0 view .LVU9
  64 0002 8230      		cpi r24,2
  65 0004 9105      		cpc r25,__zero_reg__
  66 0006 00F4      		brsh .L3
 432:./lib/lib8tion/math8.h ****         return x;
  67               		.loc 2 432 9 is_stmt 1 view .LVU10
  68               		.loc 2 432 16 is_stmt 0 view .LVU11
  69 0008 0895      		ret
  70               	.L3:
 433:./lib/lib8tion/math8.h ****     }
 434:./lib/lib8tion/math8.h **** 
 435:./lib/lib8tion/math8.h ****     uint8_t low = 1; // lower bound
  71               		.loc 2 435 5 is_stmt 1 view .LVU12
  72               	.LVL4:
 436:./lib/lib8tion/math8.h ****     uint8_t hi, mid;
  73               		.loc 2 436 5 view .LVU13
 437:./lib/lib8tion/math8.h **** 
 438:./lib/lib8tion/math8.h ****     if( x > 7904) {
  74               		.loc 2 438 5 view .LVU14
 439:./lib/lib8tion/math8.h ****         hi = 255;
  75               		.loc 2 439 12 is_stmt 0 view .LVU15
  76 000a 9FEF      		ldi r25,lo8(-1)
 438:./lib/lib8tion/math8.h ****         hi = 255;
  77               		.loc 2 438 7 view .LVU16
  78 000c 413E      		cpi r20,-31
  79 000e 8EE1      		ldi r24,30
  80 0010 5807      		cpc r21,r24
  81               	.LVL5:
 438:./lib/lib8tion/math8.h ****         hi = 255;
  82               		.loc 2 438 7 view .LVU17
  83 0012 00F4      		brsh .L5
 440:./lib/lib8tion/math8.h ****     } else {
 441:./lib/lib8tion/math8.h ****         hi = (x >> 5) + 8; // initial estimate for upper bound
  84               		.loc 2 441 9 is_stmt 1 view .LVU18
  85               		.loc 2 441 17 is_stmt 0 view .LVU19
  86 0014 9A01      		movw r18,r20
  87 0016 95E0      		ldi r25,5
  88               		1:
  89 0018 3695      		lsr r19
  90 001a 2795      		ror r18
  91 001c 9A95      		dec r25
  92 001e 01F4      		brne 1b
  93               		.loc 2 441 12 view .LVU20
  94 0020 98E0      		ldi r25,lo8(8)
  95 0022 920F      		add r25,r18
  96               	.LVL6:
  97               	.L5:
 439:./lib/lib8tion/math8.h ****     } else {
  98               		.loc 2 439 12 view .LVU21
  99 0024 61E0      		ldi r22,lo8(1)
 100               	.LVL7:
 101               	.L8:
 442:./lib/lib8tion/math8.h ****     }
 443:./lib/lib8tion/math8.h **** 
 444:./lib/lib8tion/math8.h ****     do {
 102               		.loc 2 444 5 is_stmt 1 view .LVU22
 445:./lib/lib8tion/math8.h ****         mid = (low + hi) >> 1;
 103               		.loc 2 445 9 view .LVU23
 104               		.loc 2 445 20 is_stmt 0 view .LVU24
 105 0026 E62F      		mov r30,r22
 106 0028 E90F      		add r30,r25
 107 002a FF27      		clr r31
 108 002c FF1F      		rol r31
 109 002e 9F01      		movw r18,r30
 110               		.loc 2 445 26 view .LVU25
 111 0030 3595      		asr r19
 112 0032 2795      		ror r18
 113               		.loc 2 445 13 view .LVU26
 114 0034 822F      		mov r24,r18
 115               	.LVL8:
 446:./lib/lib8tion/math8.h ****         if ((uint16_t)(mid * mid) > x) {
 116               		.loc 2 446 9 is_stmt 1 view .LVU27
 117               		.loc 2 446 28 is_stmt 0 view .LVU28
 118 0036 229F      		mul r18,r18
 119 0038 F001      		movw r30,r0
 120 003a 239F      		mul r18,r19
 121 003c F00D      		add r31,r0
 122 003e F00D      		add r31,r0
 123 0040 1124      		clr r1
 124               		.loc 2 446 12 view .LVU29
 125 0042 4E17      		cp r20,r30
 126 0044 5F07      		cpc r21,r31
 127 0046 00F4      		brsh .L6
 447:./lib/lib8tion/math8.h ****             hi = mid - 1;
 128               		.loc 2 447 13 is_stmt 1 view .LVU30
 129               		.loc 2 447 16 is_stmt 0 view .LVU31
 130 0048 9FEF      		ldi r25,lo8(-1)
 131               	.LVL9:
 132               		.loc 2 447 16 view .LVU32
 133 004a 920F      		add r25,r18
 134               	.LVL10:
 135               	.L7:
 448:./lib/lib8tion/math8.h ****         } else {
 449:./lib/lib8tion/math8.h ****             if( mid == 255) {
 450:./lib/lib8tion/math8.h ****                 return 255;
 451:./lib/lib8tion/math8.h ****             }
 452:./lib/lib8tion/math8.h ****             low = mid + 1;
 453:./lib/lib8tion/math8.h ****         }
 454:./lib/lib8tion/math8.h ****     } while (hi >= low);
 136               		.loc 2 454 13 is_stmt 1 view .LVU33
 137               		.loc 2 454 5 is_stmt 0 view .LVU34
 138 004c 9617      		cp r25,r22
 139 004e 00F4      		brsh .L8
 455:./lib/lib8tion/math8.h **** 
 456:./lib/lib8tion/math8.h ****     return low - 1;
 140               		.loc 2 456 5 is_stmt 1 view .LVU35
 141               		.loc 2 456 16 is_stmt 0 view .LVU36
 142 0050 8FEF      		ldi r24,lo8(-1)
 143 0052 860F      		add r24,r22
 144               	.L2:
 145               	/* epilogue start */
 457:./lib/lib8tion/math8.h **** }
 146               		.loc 2 457 1 view .LVU37
 147 0054 0895      		ret
 148               	.L6:
 449:./lib/lib8tion/math8.h ****                 return 255;
 149               		.loc 2 449 13 is_stmt 1 view .LVU38
 449:./lib/lib8tion/math8.h ****                 return 255;
 150               		.loc 2 449 15 is_stmt 0 view .LVU39
 151 0056 2F3F      		cpi r18,lo8(-1)
 152 0058 01F0      		breq .L2
 452:./lib/lib8tion/math8.h ****         }
 153               		.loc 2 452 13 is_stmt 1 view .LVU40
 452:./lib/lib8tion/math8.h ****         }
 154               		.loc 2 452 17 is_stmt 0 view .LVU41
 155 005a 61E0      		ldi r22,lo8(1)
 156               	.LVL11:
 452:./lib/lib8tion/math8.h ****         }
 157               		.loc 2 452 17 view .LVU42
 158 005c 620F      		add r22,r18
 159               	.LVL12:
 452:./lib/lib8tion/math8.h ****         }
 160               		.loc 2 452 17 view .LVU43
 161 005e 00C0      		rjmp .L7
 162               		.cfi_endproc
 163               	.LFE53:
 165               		.section	.text.sin8_avr,"ax",@progbits
 167               	sin8_avr:
 168               	.LVL13:
 169               	.LFB67:
 170               		.file 3 "./lib/lib8tion/trig8.h"
   1:./lib/lib8tion/trig8.h **** #ifndef __INC_LIB8TION_TRIG_H
   2:./lib/lib8tion/trig8.h **** #define __INC_LIB8TION_TRIG_H
   3:./lib/lib8tion/trig8.h **** 
   4:./lib/lib8tion/trig8.h **** ///@ingroup lib8tion
   5:./lib/lib8tion/trig8.h **** 
   6:./lib/lib8tion/trig8.h **** ///@defgroup Trig Fast trig functions
   7:./lib/lib8tion/trig8.h **** /// Fast 8 and 16-bit approximations of sin(x) and cos(x).
   8:./lib/lib8tion/trig8.h **** ///        Don't use these approximations for calculating the
   9:./lib/lib8tion/trig8.h **** ///        trajectory of a rocket to Mars, but they're great
  10:./lib/lib8tion/trig8.h **** ///        for art projects and LED displays.
  11:./lib/lib8tion/trig8.h **** ///
  12:./lib/lib8tion/trig8.h **** ///        On Arduino/AVR, the 16-bit approximation is more than
  13:./lib/lib8tion/trig8.h **** ///        10X faster than floating point sin(x) and cos(x), while
  14:./lib/lib8tion/trig8.h **** /// the 8-bit approximation is more than 20X faster.
  15:./lib/lib8tion/trig8.h **** ///@{
  16:./lib/lib8tion/trig8.h **** 
  17:./lib/lib8tion/trig8.h **** #if defined(__AVR__)
  18:./lib/lib8tion/trig8.h **** #define sin16 sin16_avr
  19:./lib/lib8tion/trig8.h **** #else
  20:./lib/lib8tion/trig8.h **** #define sin16 sin16_C
  21:./lib/lib8tion/trig8.h **** #endif
  22:./lib/lib8tion/trig8.h **** 
  23:./lib/lib8tion/trig8.h **** /// Fast 16-bit approximation of sin(x). This approximation never varies more than
  24:./lib/lib8tion/trig8.h **** /// 0.69% from the floating point value you'd get by doing
  25:./lib/lib8tion/trig8.h **** ///
  26:./lib/lib8tion/trig8.h **** ///     float s = sin(x) * 32767.0;
  27:./lib/lib8tion/trig8.h **** ///
  28:./lib/lib8tion/trig8.h **** /// @param theta input angle from 0-65535
  29:./lib/lib8tion/trig8.h **** /// @returns sin of theta, value between -32767 to 32767.
  30:./lib/lib8tion/trig8.h **** LIB8STATIC int16_t sin16_avr( uint16_t theta )
  31:./lib/lib8tion/trig8.h **** {
  32:./lib/lib8tion/trig8.h ****     static const uint8_t data[] =
  33:./lib/lib8tion/trig8.h ****     { 0,         0,         49, 0, 6393%256,   6393/256, 48, 0,
  34:./lib/lib8tion/trig8.h ****       12539%256, 12539/256, 44, 0, 18204%256, 18204/256, 38, 0,
  35:./lib/lib8tion/trig8.h ****       23170%256, 23170/256, 31, 0, 27245%256, 27245/256, 23, 0,
  36:./lib/lib8tion/trig8.h ****       30273%256, 30273/256, 14, 0, 32137%256, 32137/256,  4 /*,0*/ };
  37:./lib/lib8tion/trig8.h **** 
  38:./lib/lib8tion/trig8.h ****     uint16_t offset = (theta & 0x3FFF);
  39:./lib/lib8tion/trig8.h **** 
  40:./lib/lib8tion/trig8.h ****     // AVR doesn't have a multi-bit shift instruction,
  41:./lib/lib8tion/trig8.h ****     // so if we say "offset >>= 3", gcc makes a tiny loop.
  42:./lib/lib8tion/trig8.h ****     // Inserting empty volatile statements between each
  43:./lib/lib8tion/trig8.h ****     // bit shift forces gcc to unroll the loop.
  44:./lib/lib8tion/trig8.h ****     offset >>= 1; // 0..8191
  45:./lib/lib8tion/trig8.h ****     asm volatile("");
  46:./lib/lib8tion/trig8.h ****     offset >>= 1; // 0..4095
  47:./lib/lib8tion/trig8.h ****     asm volatile("");
  48:./lib/lib8tion/trig8.h ****     offset >>= 1; // 0..2047
  49:./lib/lib8tion/trig8.h **** 
  50:./lib/lib8tion/trig8.h ****     if( theta & 0x4000 ) offset = 2047 - offset;
  51:./lib/lib8tion/trig8.h **** 
  52:./lib/lib8tion/trig8.h ****     uint8_t sectionX4;
  53:./lib/lib8tion/trig8.h ****     sectionX4 = offset / 256;
  54:./lib/lib8tion/trig8.h ****     sectionX4 *= 4;
  55:./lib/lib8tion/trig8.h **** 
  56:./lib/lib8tion/trig8.h ****     uint8_t m;
  57:./lib/lib8tion/trig8.h **** 
  58:./lib/lib8tion/trig8.h ****     union {
  59:./lib/lib8tion/trig8.h ****         uint16_t b;
  60:./lib/lib8tion/trig8.h ****         struct {
  61:./lib/lib8tion/trig8.h ****             uint8_t blo;
  62:./lib/lib8tion/trig8.h ****             uint8_t bhi;
  63:./lib/lib8tion/trig8.h ****         };
  64:./lib/lib8tion/trig8.h ****     } u;
  65:./lib/lib8tion/trig8.h **** 
  66:./lib/lib8tion/trig8.h ****     //in effect u.b = blo + (256 * bhi);
  67:./lib/lib8tion/trig8.h ****     u.blo = data[ sectionX4 ];
  68:./lib/lib8tion/trig8.h ****     u.bhi = data[ sectionX4 + 1];
  69:./lib/lib8tion/trig8.h ****     m     = data[ sectionX4 + 2];
  70:./lib/lib8tion/trig8.h **** 
  71:./lib/lib8tion/trig8.h ****     uint8_t secoffset8 = (uint8_t)(offset) / 2;
  72:./lib/lib8tion/trig8.h **** 
  73:./lib/lib8tion/trig8.h ****     uint16_t mx = m * secoffset8;
  74:./lib/lib8tion/trig8.h **** 
  75:./lib/lib8tion/trig8.h ****     int16_t  y  = mx + u.b;
  76:./lib/lib8tion/trig8.h ****     if( theta & 0x8000 ) y = -y;
  77:./lib/lib8tion/trig8.h **** 
  78:./lib/lib8tion/trig8.h ****     return y;
  79:./lib/lib8tion/trig8.h **** }
  80:./lib/lib8tion/trig8.h **** 
  81:./lib/lib8tion/trig8.h **** /// Fast 16-bit approximation of sin(x). This approximation never varies more than
  82:./lib/lib8tion/trig8.h **** /// 0.69% from the floating point value you'd get by doing
  83:./lib/lib8tion/trig8.h **** ///
  84:./lib/lib8tion/trig8.h **** ///     float s = sin(x) * 32767.0;
  85:./lib/lib8tion/trig8.h **** ///
  86:./lib/lib8tion/trig8.h **** /// @param theta input angle from 0-65535
  87:./lib/lib8tion/trig8.h **** /// @returns sin of theta, value between -32767 to 32767.
  88:./lib/lib8tion/trig8.h **** LIB8STATIC int16_t sin16_C( uint16_t theta )
  89:./lib/lib8tion/trig8.h **** {
  90:./lib/lib8tion/trig8.h ****     static const uint16_t base[] =
  91:./lib/lib8tion/trig8.h ****     { 0, 6393, 12539, 18204, 23170, 27245, 30273, 32137 };
  92:./lib/lib8tion/trig8.h ****     static const uint8_t slope[] =
  93:./lib/lib8tion/trig8.h ****     { 49, 48, 44, 38, 31, 23, 14, 4 };
  94:./lib/lib8tion/trig8.h **** 
  95:./lib/lib8tion/trig8.h ****     uint16_t offset = (theta & 0x3FFF) >> 3; // 0..2047
  96:./lib/lib8tion/trig8.h ****     if( theta & 0x4000 ) offset = 2047 - offset;
  97:./lib/lib8tion/trig8.h **** 
  98:./lib/lib8tion/trig8.h ****     uint8_t section = offset / 256; // 0..7
  99:./lib/lib8tion/trig8.h ****     uint16_t b   = base[section];
 100:./lib/lib8tion/trig8.h ****     uint8_t  m   = slope[section];
 101:./lib/lib8tion/trig8.h **** 
 102:./lib/lib8tion/trig8.h ****     uint8_t secoffset8 = (uint8_t)(offset) / 2;
 103:./lib/lib8tion/trig8.h **** 
 104:./lib/lib8tion/trig8.h ****     uint16_t mx = m * secoffset8;
 105:./lib/lib8tion/trig8.h ****     int16_t  y  = mx + b;
 106:./lib/lib8tion/trig8.h **** 
 107:./lib/lib8tion/trig8.h ****     if( theta & 0x8000 ) y = -y;
 108:./lib/lib8tion/trig8.h **** 
 109:./lib/lib8tion/trig8.h ****     return y;
 110:./lib/lib8tion/trig8.h **** }
 111:./lib/lib8tion/trig8.h **** 
 112:./lib/lib8tion/trig8.h **** 
 113:./lib/lib8tion/trig8.h **** /// Fast 16-bit approximation of cos(x). This approximation never varies more than
 114:./lib/lib8tion/trig8.h **** /// 0.69% from the floating point value you'd get by doing
 115:./lib/lib8tion/trig8.h **** ///
 116:./lib/lib8tion/trig8.h **** ///     float s = cos(x) * 32767.0;
 117:./lib/lib8tion/trig8.h **** ///
 118:./lib/lib8tion/trig8.h **** /// @param theta input angle from 0-65535
 119:./lib/lib8tion/trig8.h **** /// @returns sin of theta, value between -32767 to 32767.
 120:./lib/lib8tion/trig8.h **** LIB8STATIC int16_t cos16( uint16_t theta)
 121:./lib/lib8tion/trig8.h **** {
 122:./lib/lib8tion/trig8.h ****     return sin16( theta + 16384);
 123:./lib/lib8tion/trig8.h **** }
 124:./lib/lib8tion/trig8.h **** 
 125:./lib/lib8tion/trig8.h **** ///////////////////////////////////////////////////////////////////////
 126:./lib/lib8tion/trig8.h **** 
 127:./lib/lib8tion/trig8.h **** // sin8 & cos8
 128:./lib/lib8tion/trig8.h **** //        Fast 8-bit approximations of sin(x) & cos(x).
 129:./lib/lib8tion/trig8.h **** //        Input angle is an unsigned int from 0-255.
 130:./lib/lib8tion/trig8.h **** //        Output is an unsigned int from 0 to 255.
 131:./lib/lib8tion/trig8.h **** //
 132:./lib/lib8tion/trig8.h **** //        This approximation can vary to to 2%
 133:./lib/lib8tion/trig8.h **** //        from the floating point value you'd get by doing
 134:./lib/lib8tion/trig8.h **** //          float s = (sin( x ) * 128.0) + 128;
 135:./lib/lib8tion/trig8.h **** //
 136:./lib/lib8tion/trig8.h **** //        Don't use this approximation for calculating the
 137:./lib/lib8tion/trig8.h **** //        "real" trigonometric calculations, but it's great
 138:./lib/lib8tion/trig8.h **** //        for art projects and LED displays.
 139:./lib/lib8tion/trig8.h **** //
 140:./lib/lib8tion/trig8.h **** //        On Arduino/AVR, this approximation is more than
 141:./lib/lib8tion/trig8.h **** //        20X faster than floating point sin(x) and cos(x)
 142:./lib/lib8tion/trig8.h **** 
 143:./lib/lib8tion/trig8.h **** #if defined(__AVR__) && !defined(LIB8_ATTINY)
 144:./lib/lib8tion/trig8.h **** #define sin8 sin8_avr
 145:./lib/lib8tion/trig8.h **** #else
 146:./lib/lib8tion/trig8.h **** #define sin8 sin8_C
 147:./lib/lib8tion/trig8.h **** #endif
 148:./lib/lib8tion/trig8.h **** 
 149:./lib/lib8tion/trig8.h **** 
 150:./lib/lib8tion/trig8.h **** static const uint8_t b_m16_interleave[8] = { 0, 49, 49, 41, 90, 27, 117, 10 };
 151:./lib/lib8tion/trig8.h **** 
 152:./lib/lib8tion/trig8.h **** /// Fast 8-bit approximation of sin(x). This approximation never varies more than
 153:./lib/lib8tion/trig8.h **** /// 2% from the floating point value you'd get by doing
 154:./lib/lib8tion/trig8.h **** ///
 155:./lib/lib8tion/trig8.h **** ///     float s = (sin(x) * 128.0) + 128;
 156:./lib/lib8tion/trig8.h **** ///
 157:./lib/lib8tion/trig8.h **** /// @param theta input angle from 0-255
 158:./lib/lib8tion/trig8.h **** /// @returns sin of theta, value between 0 and 255
 159:./lib/lib8tion/trig8.h **** LIB8STATIC uint8_t  sin8_avr( uint8_t theta)
 160:./lib/lib8tion/trig8.h **** {
 171               		.loc 3 160 1 is_stmt 1 view -0
 172               		.cfi_startproc
 173               	/* prologue: function */
 174               	/* frame size = 0 */
 175               	/* stack size = 0 */
 176               	.L__stack_usage = 0
 161:./lib/lib8tion/trig8.h ****     uint8_t offset = theta;
 177               		.loc 3 161 5 view .LVU45
 162:./lib/lib8tion/trig8.h **** 
 163:./lib/lib8tion/trig8.h ****     asm volatile(
 178               		.loc 3 163 5 view .LVU46
 179 0000 E82F      		mov r30,r24
 180               	/* #APP */
 181               	 ;  163 "./lib/lib8tion/trig8.h" 1
 182 0002 86FD      		sbrc r24,6         
 183 0004 E095      		com  r30           
 184               		
 185               	 ;  0 "" 2
 186               	.LVL14:
 164:./lib/lib8tion/trig8.h ****                  "sbrc %[theta],6         \n\t"
 165:./lib/lib8tion/trig8.h ****                  "com  %[offset]           \n\t"
 166:./lib/lib8tion/trig8.h ****                  : [theta] "+r" (theta), [offset] "+r" (offset)
 167:./lib/lib8tion/trig8.h ****                  );
 168:./lib/lib8tion/trig8.h **** 
 169:./lib/lib8tion/trig8.h ****     offset &= 0x3F; // 0..63
 187               		.loc 3 169 5 view .LVU47
 170:./lib/lib8tion/trig8.h **** 
 171:./lib/lib8tion/trig8.h ****     uint8_t secoffset  = offset & 0x0F; // 0..15
 188               		.loc 3 171 5 view .LVU48
 189               		.loc 3 171 13 is_stmt 0 view .LVU49
 190               	/* #NOAPP */
 191 0006 2E2F      		mov r18,r30
 192 0008 2F70      		andi r18,lo8(15)
 193               	.LVL15:
 172:./lib/lib8tion/trig8.h ****     if( theta & 0x40) secoffset++;
 194               		.loc 3 172 5 is_stmt 1 view .LVU50
 195               		.loc 3 172 7 is_stmt 0 view .LVU51
 196 000a 86FD      		sbrc r24,6
 197               		.loc 3 172 23 is_stmt 1 discriminator 1 view .LVU52
 198               		.loc 3 172 32 is_stmt 0 discriminator 1 view .LVU53
 199 000c 2F5F      		subi r18,lo8(-(1))
 200               	.LVL16:
 201               	.L15:
 173:./lib/lib8tion/trig8.h **** 
 174:./lib/lib8tion/trig8.h ****     uint8_t m16; uint8_t b;
 202               		.loc 3 174 5 is_stmt 1 view .LVU54
 203               		.loc 3 174 18 view .LVU55
 175:./lib/lib8tion/trig8.h **** 
 176:./lib/lib8tion/trig8.h ****     uint8_t section = offset >> 4; // 0..3
 204               		.loc 3 176 5 view .LVU56
 177:./lib/lib8tion/trig8.h ****     uint8_t s2 = section * 2;
 205               		.loc 3 177 5 view .LVU57
 178:./lib/lib8tion/trig8.h **** 
 179:./lib/lib8tion/trig8.h ****     const uint8_t* p = b_m16_interleave;
 206               		.loc 3 179 5 view .LVU58
 180:./lib/lib8tion/trig8.h ****     p += s2;
 207               		.loc 3 180 5 view .LVU59
 176:./lib/lib8tion/trig8.h ****     uint8_t s2 = section * 2;
 208               		.loc 3 176 13 is_stmt 0 view .LVU60
 209 000e E695      		lsr r30
 210 0010 E695      		lsr r30
 211 0012 E695      		lsr r30
 212               	.LVL17:
 177:./lib/lib8tion/trig8.h **** 
 213               		.loc 3 177 13 view .LVU61
 214 0014 E670      		andi r30,lo8(6)
 215               		.loc 3 180 7 view .LVU62
 216 0016 F0E0      		ldi r31,0
 217 0018 E050      		subi r30,lo8(-(b_m16_interleave))
 218 001a F040      		sbci r31,hi8(-(b_m16_interleave))
 219               	.LVL18:
 181:./lib/lib8tion/trig8.h ****     b   = *p;
 220               		.loc 3 181 5 is_stmt 1 view .LVU63
 182:./lib/lib8tion/trig8.h ****     p++;
 221               		.loc 3 182 5 view .LVU64
 183:./lib/lib8tion/trig8.h ****     m16 = *p;
 222               		.loc 3 183 5 view .LVU65
 184:./lib/lib8tion/trig8.h **** 
 185:./lib/lib8tion/trig8.h ****     uint8_t mx;
 223               		.loc 3 185 5 view .LVU66
 186:./lib/lib8tion/trig8.h ****     uint8_t xr1;
 224               		.loc 3 186 5 view .LVU67
 187:./lib/lib8tion/trig8.h ****     asm volatile(
 225               		.loc 3 187 5 view .LVU68
 226 001c 9181      		ldd r25,Z+1
 227               	/* #APP */
 228               	 ;  187 "./lib/lib8tion/trig8.h" 1
 229 001e 929F      		mul r25,r18   
 230 0020 902D      		mov r25,r0              
 231 0022 212D      		mov r18,r1             
 232 0024 1124      		eor  r1, r1               
 233 0026 9295      		swap r25                
 234 0028 9F70      		andi r25,0x0F           
 235 002a 2295      		swap r18               
 236 002c 207F      		andi r18, 0xF0         
 237 002e 922B      		or   r25, r18        
 238               		
 239               	 ;  0 "" 2
 240               	.LVL19:
 188:./lib/lib8tion/trig8.h ****                  "mul %[m16],%[secoffset]   \n\t"
 189:./lib/lib8tion/trig8.h ****                  "mov %[mx],r0              \n\t"
 190:./lib/lib8tion/trig8.h ****                  "mov %[xr1],r1             \n\t"
 191:./lib/lib8tion/trig8.h ****                  "eor  r1, r1               \n\t"
 192:./lib/lib8tion/trig8.h ****                  "swap %[mx]                \n\t"
 193:./lib/lib8tion/trig8.h ****                  "andi %[mx],0x0F           \n\t"
 194:./lib/lib8tion/trig8.h ****                  "swap %[xr1]               \n\t"
 195:./lib/lib8tion/trig8.h ****                  "andi %[xr1], 0xF0         \n\t"
 196:./lib/lib8tion/trig8.h ****                  "or   %[mx], %[xr1]        \n\t"
 197:./lib/lib8tion/trig8.h ****                  : [mx] "=d" (mx), [xr1] "=d" (xr1)
 198:./lib/lib8tion/trig8.h ****                  : [m16] "d" (m16), [secoffset] "d" (secoffset)
 199:./lib/lib8tion/trig8.h ****                  );
 200:./lib/lib8tion/trig8.h **** 
 201:./lib/lib8tion/trig8.h ****     int8_t y = mx + b;
 241               		.loc 3 201 5 view .LVU69
 242               		.loc 3 201 19 is_stmt 0 view .LVU70
 243               	/* #NOAPP */
 244 0030 2081      		ld r18,Z
 245 0032 920F      		add r25,r18
 246               	.LVL20:
 202:./lib/lib8tion/trig8.h ****     if( theta & 0x80 ) y = -y;
 247               		.loc 3 202 5 is_stmt 1 view .LVU71
 248               		.loc 3 202 7 is_stmt 0 view .LVU72
 249 0034 87FD      		sbrc r24,7
 250               		.loc 3 202 24 is_stmt 1 discriminator 1 view .LVU73
 251               		.loc 3 202 26 is_stmt 0 discriminator 1 view .LVU74
 252 0036 9195      		neg r25
 253               	.LVL21:
 254               	.L16:
 203:./lib/lib8tion/trig8.h **** 
 204:./lib/lib8tion/trig8.h ****     y += 128;
 255               		.loc 3 204 5 is_stmt 1 view .LVU75
 205:./lib/lib8tion/trig8.h **** 
 206:./lib/lib8tion/trig8.h ****     return y;
 256               		.loc 3 206 5 view .LVU76
 207:./lib/lib8tion/trig8.h **** }
 257               		.loc 3 207 1 is_stmt 0 view .LVU77
 258 0038 80E8      		ldi r24,lo8(-128)
 259               	.LVL22:
 260               		.loc 3 207 1 view .LVU78
 261 003a 890F      		add r24,r25
 262               	.LVL23:
 263               	/* epilogue start */
 264               		.loc 3 207 1 view .LVU79
 265 003c 0895      		ret
 266               		.cfi_endproc
 267               	.LFE67:
 269               		.section	.text.SOLID_SPLASH_math,"ax",@progbits
 270               	.global	SOLID_SPLASH_math
 272               	SOLID_SPLASH_math:
 273               	.LVL24:
 274               	.LFB104:
 275               		.file 4 "quantum/rgb_matrix_animations/solid_splash_anim.h"
   1:quantum/rgb_matrix_animations/solid_splash_anim.h **** #ifdef RGB_MATRIX_KEYREACTIVE_ENABLED
   2:quantum/rgb_matrix_animations/solid_splash_anim.h **** #    if !defined(DISABLE_RGB_MATRIX_SOLID_SPLASH) || !defined(DISABLE_RGB_MATRIX_SOLID_MULTISPLASH)
   3:quantum/rgb_matrix_animations/solid_splash_anim.h **** 
   4:quantum/rgb_matrix_animations/solid_splash_anim.h **** #        ifndef DISABLE_RGB_MATRIX_SOLID_SPLASH
   5:quantum/rgb_matrix_animations/solid_splash_anim.h **** RGB_MATRIX_EFFECT(SOLID_SPLASH)
   6:quantum/rgb_matrix_animations/solid_splash_anim.h **** #        endif
   7:quantum/rgb_matrix_animations/solid_splash_anim.h **** 
   8:quantum/rgb_matrix_animations/solid_splash_anim.h **** #        ifndef DISABLE_RGB_MATRIX_SOLID_MULTISPLASH
   9:quantum/rgb_matrix_animations/solid_splash_anim.h **** RGB_MATRIX_EFFECT(SOLID_MULTISPLASH)
  10:quantum/rgb_matrix_animations/solid_splash_anim.h **** #        endif
  11:quantum/rgb_matrix_animations/solid_splash_anim.h **** 
  12:quantum/rgb_matrix_animations/solid_splash_anim.h **** #        ifdef RGB_MATRIX_CUSTOM_EFFECT_IMPLS
  13:quantum/rgb_matrix_animations/solid_splash_anim.h **** 
  14:quantum/rgb_matrix_animations/solid_splash_anim.h **** HSV SOLID_SPLASH_math(HSV hsv, int16_t dx, int16_t dy, uint8_t dist, uint16_t tick) {
 276               		.loc 4 14 85 is_stmt 1 view -0
 277               		.cfi_startproc
 278               		.loc 4 14 85 is_stmt 0 view .LVU81
 279 0000 EF92      		push r14
 280               	.LCFI0:
 281               		.cfi_def_cfa_offset 3
 282               		.cfi_offset 14, -2
 283 0002 FF92      		push r15
 284               	.LCFI1:
 285               		.cfi_def_cfa_offset 4
 286               		.cfi_offset 15, -3
 287 0004 0F93      		push r16
 288               	.LCFI2:
 289               		.cfi_def_cfa_offset 5
 290               		.cfi_offset 16, -4
 291               	/* prologue: function */
 292               	/* frame size = 0 */
 293               	/* stack size = 3 */
 294               	.L__stack_usage = 3
  15:quantum/rgb_matrix_animations/solid_splash_anim.h ****     uint16_t effect = tick - dist;
 295               		.loc 4 15 5 is_stmt 1 view .LVU82
 296               	.LVL25:
  16:quantum/rgb_matrix_animations/solid_splash_anim.h ****     if (effect > 255) effect = 255;
 297               		.loc 4 16 5 view .LVU83
  17:quantum/rgb_matrix_animations/solid_splash_anim.h ****     hsv.v = qadd8(hsv.v, 255 - effect);
 298               		.loc 4 17 5 view .LVU84
 299               	.LBB28:
 300               	.LBI28:
  23:./lib/lib8tion/math8.h **** {
 301               		.loc 2 23 34 view .LVU85
 302               	.LBB29:
  30:./lib/lib8tion/math8.h ****          /* First, add j to i, conditioning the C flag */
 303               		.loc 2 30 5 view .LVU86
 304               	.LBE29:
 305               	.LBE28:
 306               		.loc 4 17 13 is_stmt 0 view .LVU87
 307 0006 9701      		movw r18,r14
 308               	.LVL26:
 309               		.loc 4 17 13 view .LVU88
 310 0008 201B      		sub r18,r16
 311 000a 3109      		sbc r19,__zero_reg__
 312               	.LVL27:
 313               		.loc 4 17 13 view .LVU89
 314 000c 2F3F      		cpi r18,-1
 315 000e 3105      		cpc r19,__zero_reg__
 316 0010 01F0      		breq .L21
 317 0012 00F0      		brlo .L21
 318 0014 2FEF      		ldi r18,lo8(-1)
 319 0016 30E0      		ldi r19,0
 320               	.LVL28:
 321               	.L21:
 322               		.loc 4 17 13 view .LVU90
 323 0018 2095      		com r18
 324               	.LBB31:
 325               	.LBB30:
  30:./lib/lib8tion/math8.h ****          /* First, add j to i, conditioning the C flag */
 326               		.loc 2 30 5 view .LVU91
 327 001a 382F      		mov r19,r24
 328               	/* #APP */
 329               	 ;  30 "./lib/lib8tion/math8.h" 1
 330 001c 320F      		add r19, r18    
 331 001e 00F4      		brcc L_273     
 332 0020 3FEF      		ldi r19, 0xFF  
 333               		L_273: 
 334               	 ;  0 "" 2
 335               	/* #NOAPP */
 336 0022 832F      		mov r24,r19
 337               	.LVL29:
  43:./lib/lib8tion/math8.h **** #elif QADD8_ARM_DSP_ASM == 1
 338               		.loc 2 43 5 is_stmt 1 view .LVU92
  43:./lib/lib8tion/math8.h **** #elif QADD8_ARM_DSP_ASM == 1
 339               		.loc 2 43 5 is_stmt 0 view .LVU93
 340               	.LBE30:
 341               	.LBE31:
  18:quantum/rgb_matrix_animations/solid_splash_anim.h ****     return hsv;
 342               		.loc 4 18 5 is_stmt 1 view .LVU94
 343               	.LVL30:
 344               	/* epilogue start */
  19:quantum/rgb_matrix_animations/solid_splash_anim.h **** }
 345               		.loc 4 19 1 is_stmt 0 view .LVU95
 346 0024 0F91      		pop r16
 347               	.LVL31:
 348               		.loc 4 19 1 view .LVU96
 349 0026 FF90      		pop r15
 350 0028 EF90      		pop r14
 351               	.LVL32:
 352               		.loc 4 19 1 view .LVU97
 353 002a 0895      		ret
 354               		.cfi_endproc
 355               	.LFE104:
 357               		.section	.text.rgb_matrix_hsv_to_rgb,"ax",@progbits
 358               		.weak	rgb_matrix_hsv_to_rgb
 360               	rgb_matrix_hsv_to_rgb:
 361               	.LVL33:
 362               	.LFB96:
 363               		.file 5 "quantum/rgb_matrix.c"
   1:quantum/rgb_matrix.c **** /* Copyright 2017 Jason Williams
   2:quantum/rgb_matrix.c ****  * Copyright 2017 Jack Humbert
   3:quantum/rgb_matrix.c ****  * Copyright 2018 Yiancar
   4:quantum/rgb_matrix.c ****  *
   5:quantum/rgb_matrix.c ****  * This program is free software: you can redistribute it and/or modify
   6:quantum/rgb_matrix.c ****  * it under the terms of the GNU General Public License as published by
   7:quantum/rgb_matrix.c ****  * the Free Software Foundation, either version 2 of the License, or
   8:quantum/rgb_matrix.c ****  * (at your option) any later version.
   9:quantum/rgb_matrix.c ****  *
  10:quantum/rgb_matrix.c ****  * This program is distributed in the hope that it will be useful,
  11:quantum/rgb_matrix.c ****  * but WITHOUT ANY WARRANTY; without even the implied warranty of
  12:quantum/rgb_matrix.c ****  * MERCHANTABILITY or FITNESS FOR A PARTICULAR PURPOSE.  See the
  13:quantum/rgb_matrix.c ****  * GNU General Public License for more details.
  14:quantum/rgb_matrix.c ****  *
  15:quantum/rgb_matrix.c ****  * You should have received a copy of the GNU General Public License
  16:quantum/rgb_matrix.c ****  * along with this program.  If not, see <http://www.gnu.org/licenses/>.
  17:quantum/rgb_matrix.c ****  */
  18:quantum/rgb_matrix.c **** 
  19:quantum/rgb_matrix.c **** #include "rgb_matrix.h"
  20:quantum/rgb_matrix.c **** #include "progmem.h"
  21:quantum/rgb_matrix.c **** #include "config.h"
  22:quantum/rgb_matrix.c **** #include "eeprom.h"
  23:quantum/rgb_matrix.c **** #include <string.h>
  24:quantum/rgb_matrix.c **** #include <math.h>
  25:quantum/rgb_matrix.c **** 
  26:quantum/rgb_matrix.c **** #include <lib/lib8tion/lib8tion.h>
  27:quantum/rgb_matrix.c **** 
  28:quantum/rgb_matrix.c **** #ifndef RGB_MATRIX_CENTER
  29:quantum/rgb_matrix.c **** const led_point_t k_rgb_matrix_center = {112, 32};
  30:quantum/rgb_matrix.c **** #else
  31:quantum/rgb_matrix.c **** const led_point_t k_rgb_matrix_center = RGB_MATRIX_CENTER;
  32:quantum/rgb_matrix.c **** #endif
  33:quantum/rgb_matrix.c **** 
  34:quantum/rgb_matrix.c **** __attribute__((weak)) RGB rgb_matrix_hsv_to_rgb(HSV hsv) { return hsv_to_rgb(hsv); }
 364               		.loc 5 34 58 is_stmt 1 view -0
 365               		.cfi_startproc
 366               	/* prologue: function */
 367               	/* frame size = 0 */
 368               	/* stack size = 0 */
 369               	.L__stack_usage = 0
 370               		.loc 5 34 60 view .LVU99
 371               		.loc 5 34 67 is_stmt 0 view .LVU100
 372 0000 0C94 0000 		jmp hsv_to_rgb
 373               	.LVL34:
 374               		.loc 5 34 67 view .LVU101
 375               		.cfi_endproc
 376               	.LFE96:
 378               		.section	.text.eeconfig_read_rgb_matrix,"ax",@progbits
 379               	.global	eeconfig_read_rgb_matrix
 381               	eeconfig_read_rgb_matrix:
 382               	.LFB110:
  35:quantum/rgb_matrix.c **** 
  36:quantum/rgb_matrix.c **** // Generic effect runners
  37:quantum/rgb_matrix.c **** #include "rgb_matrix_runners/effect_runner_dx_dy_dist.h"
  38:quantum/rgb_matrix.c **** #include "rgb_matrix_runners/effect_runner_dx_dy.h"
  39:quantum/rgb_matrix.c **** #include "rgb_matrix_runners/effect_runner_i.h"
  40:quantum/rgb_matrix.c **** #include "rgb_matrix_runners/effect_runner_sin_cos_i.h"
  41:quantum/rgb_matrix.c **** #include "rgb_matrix_runners/effect_runner_reactive.h"
  42:quantum/rgb_matrix.c **** #include "rgb_matrix_runners/effect_runner_reactive_splash.h"
  43:quantum/rgb_matrix.c **** 
  44:quantum/rgb_matrix.c **** // ------------------------------------------
  45:quantum/rgb_matrix.c **** // -----Begin rgb effect includes macros-----
  46:quantum/rgb_matrix.c **** #define RGB_MATRIX_EFFECT(name)
  47:quantum/rgb_matrix.c **** #define RGB_MATRIX_CUSTOM_EFFECT_IMPLS
  48:quantum/rgb_matrix.c **** 
  49:quantum/rgb_matrix.c **** #include "rgb_matrix_animations/rgb_matrix_effects.inc"
  50:quantum/rgb_matrix.c **** #ifdef RGB_MATRIX_CUSTOM_KB
  51:quantum/rgb_matrix.c **** #    include "rgb_matrix_kb.inc"
  52:quantum/rgb_matrix.c **** #endif
  53:quantum/rgb_matrix.c **** #ifdef RGB_MATRIX_CUSTOM_USER
  54:quantum/rgb_matrix.c **** #    include "rgb_matrix_user.inc"
  55:quantum/rgb_matrix.c **** #endif
  56:quantum/rgb_matrix.c **** 
  57:quantum/rgb_matrix.c **** #undef RGB_MATRIX_CUSTOM_EFFECT_IMPLS
  58:quantum/rgb_matrix.c **** #undef RGB_MATRIX_EFFECT
  59:quantum/rgb_matrix.c **** // -----End rgb effect includes macros-------
  60:quantum/rgb_matrix.c **** // ------------------------------------------
  61:quantum/rgb_matrix.c **** 
  62:quantum/rgb_matrix.c **** #if defined(RGB_DISABLE_AFTER_TIMEOUT) && !defined(RGB_DISABLE_TIMEOUT)
  63:quantum/rgb_matrix.c **** #    define RGB_DISABLE_TIMEOUT (RGB_DISABLE_AFTER_TIMEOUT * 1200UL)
  64:quantum/rgb_matrix.c **** #endif
  65:quantum/rgb_matrix.c **** 
  66:quantum/rgb_matrix.c **** #ifndef RGB_DISABLE_TIMEOUT
  67:quantum/rgb_matrix.c **** #    define RGB_DISABLE_TIMEOUT 0
  68:quantum/rgb_matrix.c **** #endif
  69:quantum/rgb_matrix.c **** 
  70:quantum/rgb_matrix.c **** #if RGB_DISABLE_WHEN_USB_SUSPENDED == false
  71:quantum/rgb_matrix.c **** #    undef RGB_DISABLE_WHEN_USB_SUSPENDED
  72:quantum/rgb_matrix.c **** #endif
  73:quantum/rgb_matrix.c **** 
  74:quantum/rgb_matrix.c **** #if !defined(RGB_MATRIX_MAXIMUM_BRIGHTNESS) || RGB_MATRIX_MAXIMUM_BRIGHTNESS > UINT8_MAX
  75:quantum/rgb_matrix.c **** #    undef RGB_MATRIX_MAXIMUM_BRIGHTNESS
  76:quantum/rgb_matrix.c **** #    define RGB_MATRIX_MAXIMUM_BRIGHTNESS UINT8_MAX
  77:quantum/rgb_matrix.c **** #endif
  78:quantum/rgb_matrix.c **** 
  79:quantum/rgb_matrix.c **** #if !defined(RGB_MATRIX_HUE_STEP)
  80:quantum/rgb_matrix.c **** #    define RGB_MATRIX_HUE_STEP 8
  81:quantum/rgb_matrix.c **** #endif
  82:quantum/rgb_matrix.c **** 
  83:quantum/rgb_matrix.c **** #if !defined(RGB_MATRIX_SAT_STEP)
  84:quantum/rgb_matrix.c **** #    define RGB_MATRIX_SAT_STEP 16
  85:quantum/rgb_matrix.c **** #endif
  86:quantum/rgb_matrix.c **** 
  87:quantum/rgb_matrix.c **** #if !defined(RGB_MATRIX_VAL_STEP)
  88:quantum/rgb_matrix.c **** #    define RGB_MATRIX_VAL_STEP 16
  89:quantum/rgb_matrix.c **** #endif
  90:quantum/rgb_matrix.c **** 
  91:quantum/rgb_matrix.c **** #if !defined(RGB_MATRIX_SPD_STEP)
  92:quantum/rgb_matrix.c **** #    define RGB_MATRIX_SPD_STEP 16
  93:quantum/rgb_matrix.c **** #endif
  94:quantum/rgb_matrix.c **** 
  95:quantum/rgb_matrix.c **** #if !defined(RGB_MATRIX_STARTUP_MODE)
  96:quantum/rgb_matrix.c **** #    ifndef DISABLE_RGB_MATRIX_CYCLE_LEFT_RIGHT
  97:quantum/rgb_matrix.c **** #        define RGB_MATRIX_STARTUP_MODE RGB_MATRIX_CYCLE_LEFT_RIGHT
  98:quantum/rgb_matrix.c **** #    else
  99:quantum/rgb_matrix.c **** // fallback to solid colors if RGB_MATRIX_CYCLE_LEFT_RIGHT is disabled in userspace
 100:quantum/rgb_matrix.c **** #        define RGB_MATRIX_STARTUP_MODE RGB_MATRIX_SOLID_COLOR
 101:quantum/rgb_matrix.c **** #    endif
 102:quantum/rgb_matrix.c **** #endif
 103:quantum/rgb_matrix.c **** 
 104:quantum/rgb_matrix.c **** #if !defined(RGB_MATRIX_STARTUP_HUE)
 105:quantum/rgb_matrix.c **** #    define RGB_MATRIX_STARTUP_HUE 0
 106:quantum/rgb_matrix.c **** #endif
 107:quantum/rgb_matrix.c **** 
 108:quantum/rgb_matrix.c **** #if !defined(RGB_MATRIX_STARTUP_SAT)
 109:quantum/rgb_matrix.c **** #    define RGB_MATRIX_STARTUP_SAT UINT8_MAX
 110:quantum/rgb_matrix.c **** #endif
 111:quantum/rgb_matrix.c **** 
 112:quantum/rgb_matrix.c **** #if !defined(RGB_MATRIX_STARTUP_VAL)
 113:quantum/rgb_matrix.c **** #    define RGB_MATRIX_STARTUP_VAL RGB_MATRIX_MAXIMUM_BRIGHTNESS
 114:quantum/rgb_matrix.c **** #endif
 115:quantum/rgb_matrix.c **** 
 116:quantum/rgb_matrix.c **** #if !defined(RGB_MATRIX_STARTUP_SPD)
 117:quantum/rgb_matrix.c **** #    define RGB_MATRIX_STARTUP_SPD UINT8_MAX / 2
 118:quantum/rgb_matrix.c **** #endif
 119:quantum/rgb_matrix.c **** 
 120:quantum/rgb_matrix.c **** // globals
 121:quantum/rgb_matrix.c **** rgb_config_t rgb_matrix_config;  // TODO: would like to prefix this with g_ for global consistancy,
 122:quantum/rgb_matrix.c **** uint32_t     g_rgb_timer;
 123:quantum/rgb_matrix.c **** #ifdef RGB_MATRIX_FRAMEBUFFER_EFFECTS
 124:quantum/rgb_matrix.c **** uint8_t g_rgb_frame_buffer[MATRIX_ROWS][MATRIX_COLS] = {{0}};
 125:quantum/rgb_matrix.c **** #endif  // RGB_MATRIX_FRAMEBUFFER_EFFECTS
 126:quantum/rgb_matrix.c **** #ifdef RGB_MATRIX_KEYREACTIVE_ENABLED
 127:quantum/rgb_matrix.c **** last_hit_t g_last_hit_tracker;
 128:quantum/rgb_matrix.c **** #endif  // RGB_MATRIX_KEYREACTIVE_ENABLED
 129:quantum/rgb_matrix.c **** 
 130:quantum/rgb_matrix.c **** // internals
 131:quantum/rgb_matrix.c **** static bool            suspend_state     = false;
 132:quantum/rgb_matrix.c **** static uint8_t         rgb_last_enable   = UINT8_MAX;
 133:quantum/rgb_matrix.c **** static uint8_t         rgb_last_effect   = UINT8_MAX;
 134:quantum/rgb_matrix.c **** static effect_params_t rgb_effect_params = {0, LED_FLAG_ALL, false};
 135:quantum/rgb_matrix.c **** static rgb_task_states rgb_task_state    = SYNCING;
 136:quantum/rgb_matrix.c **** #if RGB_DISABLE_TIMEOUT > 0
 137:quantum/rgb_matrix.c **** static uint32_t rgb_anykey_timer;
 138:quantum/rgb_matrix.c **** #endif  // RGB_DISABLE_TIMEOUT > 0
 139:quantum/rgb_matrix.c **** 
 140:quantum/rgb_matrix.c **** // double buffers
 141:quantum/rgb_matrix.c **** static uint32_t rgb_timer_buffer;
 142:quantum/rgb_matrix.c **** #ifdef RGB_MATRIX_KEYREACTIVE_ENABLED
 143:quantum/rgb_matrix.c **** static last_hit_t last_hit_buffer;
 144:quantum/rgb_matrix.c **** #endif  // RGB_MATRIX_KEYREACTIVE_ENABLED
 145:quantum/rgb_matrix.c **** 
 146:quantum/rgb_matrix.c **** // split rgb matrix
 147:quantum/rgb_matrix.c **** #if defined(RGB_MATRIX_ENABLE) && defined(RGB_MATRIX_SPLIT)
 148:quantum/rgb_matrix.c **** const uint8_t k_rgb_matrix_split[2] = RGB_MATRIX_SPLIT;
 149:quantum/rgb_matrix.c **** #endif
 150:quantum/rgb_matrix.c **** 
 151:quantum/rgb_matrix.c **** void eeconfig_read_rgb_matrix(void) { eeprom_read_block(&rgb_matrix_config, EECONFIG_RGB_MATRIX, si
 383               		.loc 5 151 37 is_stmt 1 view -0
 384               		.cfi_startproc
 385               	/* prologue: function */
 386               	/* frame size = 0 */
 387               	/* stack size = 0 */
 388               	.L__stack_usage = 0
 389               		.loc 5 151 39 view .LVU103
 390 0000 46E0      		ldi r20,lo8(6)
 391 0002 50E0      		ldi r21,0
 392 0004 6CE1      		ldi r22,lo8(28)
 393 0006 70E0      		ldi r23,0
 394 0008 80E0      		ldi r24,lo8(rgb_matrix_config)
 395 000a 90E0      		ldi r25,hi8(rgb_matrix_config)
 396 000c 0C94 0000 		jmp eeprom_read_block
 397               	.LVL35:
 398               		.cfi_endproc
 399               	.LFE110:
 401               		.section	.text.eeconfig_update_rgb_matrix,"ax",@progbits
 402               	.global	eeconfig_update_rgb_matrix
 404               	eeconfig_update_rgb_matrix:
 405               	.LFB111:
 152:quantum/rgb_matrix.c **** 
 153:quantum/rgb_matrix.c **** void eeconfig_update_rgb_matrix(void) { eeprom_update_block(&rgb_matrix_config, EECONFIG_RGB_MATRIX
 406               		.loc 5 153 39 view -0
 407               		.cfi_startproc
 408               	/* prologue: function */
 409               	/* frame size = 0 */
 410               	/* stack size = 0 */
 411               	.L__stack_usage = 0
 412               		.loc 5 153 41 view .LVU105
 413 0000 46E0      		ldi r20,lo8(6)
 414 0002 50E0      		ldi r21,0
 415 0004 6CE1      		ldi r22,lo8(28)
 416 0006 70E0      		ldi r23,0
 417 0008 80E0      		ldi r24,lo8(rgb_matrix_config)
 418 000a 90E0      		ldi r25,hi8(rgb_matrix_config)
 419 000c 0C94 0000 		jmp eeprom_update_block
 420               	.LVL36:
 421               		.cfi_endproc
 422               	.LFE111:
 424               		.section	.rodata
 425               	.LC0:
 426 0000 00        		.byte	0
 427 0001 FF        		.byte	-1
 428 0002 FF        		.byte	-1
 429               		.section	.text.eeconfig_update_rgb_matrix_default,"ax",@progbits
 430               	.global	eeconfig_update_rgb_matrix_default
 432               	eeconfig_update_rgb_matrix_default:
 433               	.LFB112:
 154:quantum/rgb_matrix.c **** 
 155:quantum/rgb_matrix.c **** void eeconfig_update_rgb_matrix_default(void) {
 434               		.loc 5 155 47 view -0
 435               		.cfi_startproc
 436               	/* prologue: function */
 437               	/* frame size = 0 */
 438               	/* stack size = 0 */
 439               	.L__stack_usage = 0
 156:quantum/rgb_matrix.c ****     dprintf("eeconfig_update_rgb_matrix_default\n");
 440               		.loc 5 156 52 view .LVU107
 157:quantum/rgb_matrix.c ****     rgb_matrix_config.enable = 1;
 441               		.loc 5 157 5 view .LVU108
 158:quantum/rgb_matrix.c ****     rgb_matrix_config.mode   = RGB_MATRIX_STARTUP_MODE;
 442               		.loc 5 158 5 view .LVU109
 157:quantum/rgb_matrix.c ****     rgb_matrix_config.enable = 1;
 443               		.loc 5 157 30 is_stmt 0 view .LVU110
 444 0000 E0E0      		ldi r30,lo8(rgb_matrix_config)
 445 0002 F0E0      		ldi r31,hi8(rgb_matrix_config)
 446 0004 85E0      		ldi r24,lo8(5)
 447 0006 8083      		st Z,r24
 159:quantum/rgb_matrix.c ****     rgb_matrix_config.hsv    = (HSV){RGB_MATRIX_STARTUP_HUE, RGB_MATRIX_STARTUP_SAT, RGB_MATRIX_STA
 448               		.loc 5 159 5 is_stmt 1 view .LVU111
 449               		.loc 5 159 30 is_stmt 0 view .LVU112
 450 0008 8091 0000 		lds r24,.LC0
 451 000c 9091 0000 		lds r25,.LC0+1
 452 0010 A091 0000 		lds r26,.LC0+2
 453 0014 8183      		std Z+1,r24
 454 0016 9283      		std Z+2,r25
 455 0018 A383      		std Z+3,r26
 160:quantum/rgb_matrix.c ****     rgb_matrix_config.speed  = RGB_MATRIX_STARTUP_SPD;
 456               		.loc 5 160 5 is_stmt 1 view .LVU113
 457               		.loc 5 160 30 is_stmt 0 view .LVU114
 458 001a 8FE7      		ldi r24,lo8(127)
 459 001c 8483      		std Z+4,r24
 161:quantum/rgb_matrix.c ****     rgb_matrix_config.flags  = LED_FLAG_ALL;
 460               		.loc 5 161 5 is_stmt 1 view .LVU115
 461               		.loc 5 161 30 is_stmt 0 view .LVU116
 462 001e 8FEF      		ldi r24,lo8(-1)
 463 0020 8583      		std Z+5,r24
 162:quantum/rgb_matrix.c ****     eeconfig_update_rgb_matrix();
 464               		.loc 5 162 5 is_stmt 1 view .LVU117
 465 0022 0C94 0000 		jmp eeconfig_update_rgb_matrix
 466               	.LVL37:
 467               		.cfi_endproc
 468               	.LFE112:
 470               		.section	.text.eeconfig_debug_rgb_matrix,"ax",@progbits
 471               	.global	eeconfig_debug_rgb_matrix
 473               	eeconfig_debug_rgb_matrix:
 474               	.LFB113:
 163:quantum/rgb_matrix.c **** }
 164:quantum/rgb_matrix.c **** 
 165:quantum/rgb_matrix.c **** void eeconfig_debug_rgb_matrix(void) {
 475               		.loc 5 165 38 view -0
 476               		.cfi_startproc
 477               	/* prologue: function */
 478               	/* frame size = 0 */
 479               	/* stack size = 0 */
 480               	.L__stack_usage = 0
 166:quantum/rgb_matrix.c ****     dprintf("rgb_matrix_config EEPROM\n");
 481               		.loc 5 166 42 view .LVU119
 167:quantum/rgb_matrix.c ****     dprintf("rgb_matrix_config.enable = %d\n", rgb_matrix_config.enable);
 482               		.loc 5 167 73 view .LVU120
 168:quantum/rgb_matrix.c ****     dprintf("rgb_matrix_config.mode = %d\n", rgb_matrix_config.mode);
 483               		.loc 5 168 69 view .LVU121
 169:quantum/rgb_matrix.c ****     dprintf("rgb_matrix_config.hsv.h = %d\n", rgb_matrix_config.hsv.h);
 484               		.loc 5 169 71 view .LVU122
 170:quantum/rgb_matrix.c ****     dprintf("rgb_matrix_config.hsv.s = %d\n", rgb_matrix_config.hsv.s);
 485               		.loc 5 170 71 view .LVU123
 171:quantum/rgb_matrix.c ****     dprintf("rgb_matrix_config.hsv.v = %d\n", rgb_matrix_config.hsv.v);
 486               		.loc 5 171 71 view .LVU124
 172:quantum/rgb_matrix.c ****     dprintf("rgb_matrix_config.speed = %d\n", rgb_matrix_config.speed);
 487               		.loc 5 172 71 view .LVU125
 173:quantum/rgb_matrix.c ****     dprintf("rgb_matrix_config.flags = %d\n", rgb_matrix_config.flags);
 488               		.loc 5 173 71 view .LVU126
 489               	/* epilogue start */
 174:quantum/rgb_matrix.c **** }
 490               		.loc 5 174 1 is_stmt 0 view .LVU127
 491 0000 0895      		ret
 492               		.cfi_endproc
 493               	.LFE113:
 495               		.section	.text.rgb_matrix_map_row_column_to_led_kb,"ax",@progbits
 496               		.weak	rgb_matrix_map_row_column_to_led_kb
 498               	rgb_matrix_map_row_column_to_led_kb:
 499               	.LVL38:
 500               	.LFB114:
 175:quantum/rgb_matrix.c **** 
 176:quantum/rgb_matrix.c **** __attribute__((weak)) uint8_t rgb_matrix_map_row_column_to_led_kb(uint8_t row, uint8_t column, uint
 501               		.loc 5 176 112 is_stmt 1 view -0
 502               		.cfi_startproc
 503               	/* prologue: function */
 504               	/* frame size = 0 */
 505               	/* stack size = 0 */
 506               	.L__stack_usage = 0
 507               		.loc 5 176 114 view .LVU129
 508               		.loc 5 176 1 is_stmt 0 view .LVU130
 509 0000 80E0      		ldi r24,0
 510               	.LVL39:
 511               	/* epilogue start */
 512               		.loc 5 176 1 view .LVU131
 513 0002 0895      		ret
 514               		.cfi_endproc
 515               	.LFE114:
 517               		.section	.text.rgb_matrix_map_row_column_to_led,"ax",@progbits
 518               	.global	rgb_matrix_map_row_column_to_led
 520               	rgb_matrix_map_row_column_to_led:
 521               	.LVL40:
 522               	.LFB115:
 177:quantum/rgb_matrix.c **** 
 178:quantum/rgb_matrix.c **** uint8_t rgb_matrix_map_row_column_to_led(uint8_t row, uint8_t column, uint8_t *led_i) {
 523               		.loc 5 178 87 is_stmt 1 view -0
 524               		.cfi_startproc
 525               		.loc 5 178 87 is_stmt 0 view .LVU133
 526 0000 0F93      		push r16
 527               	.LCFI3:
 528               		.cfi_def_cfa_offset 3
 529               		.cfi_offset 16, -2
 530 0002 1F93      		push r17
 531               	.LCFI4:
 532               		.cfi_def_cfa_offset 4
 533               		.cfi_offset 17, -3
 534 0004 CF93      		push r28
 535               	.LCFI5:
 536               		.cfi_def_cfa_offset 5
 537               		.cfi_offset 28, -4
 538 0006 DF93      		push r29
 539               	.LCFI6:
 540               		.cfi_def_cfa_offset 6
 541               		.cfi_offset 29, -5
 542               	/* prologue: function */
 543               	/* frame size = 0 */
 544               	/* stack size = 4 */
 545               	.L__stack_usage = 4
 546 0008 C82F      		mov r28,r24
 547 000a D62F      		mov r29,r22
 548 000c 8A01      		movw r16,r20
 179:quantum/rgb_matrix.c ****     uint8_t led_count = rgb_matrix_map_row_column_to_led_kb(row, column, led_i);
 549               		.loc 5 179 5 is_stmt 1 view .LVU134
 550               		.loc 5 179 25 is_stmt 0 view .LVU135
 551 000e 0E94 0000 		call rgb_matrix_map_row_column_to_led_kb
 552               	.LVL41:
 180:quantum/rgb_matrix.c ****     uint8_t led_index = g_led_config.matrix_co[row][column];
 553               		.loc 5 180 5 is_stmt 1 view .LVU136
 554               		.loc 5 180 13 is_stmt 0 view .LVU137
 555 0012 9CE0      		ldi r25,lo8(12)
 556 0014 C99F      		mul r28,r25
 557 0016 B001      		movw r22,r0
 558 0018 1124      		clr __zero_reg__
 559 001a 6050      		subi r22,lo8(-(g_led_config))
 560 001c 7040      		sbci r23,hi8(-(g_led_config))
 561 001e 6D0F      		add r22,r29
 562 0020 711D      		adc r23,__zero_reg__
 563 0022 FB01      		movw r30,r22
 564 0024 9081      		ld r25,Z
 565               	.LVL42:
 181:quantum/rgb_matrix.c ****     if (led_index != NO_LED) {
 566               		.loc 5 181 5 is_stmt 1 view .LVU138
 567               		.loc 5 181 8 is_stmt 0 view .LVU139
 568 0026 9F3F      		cpi r25,lo8(-1)
 569 0028 01F0      		breq .L28
 182:quantum/rgb_matrix.c ****         led_i[led_count] = led_index;
 570               		.loc 5 182 9 is_stmt 1 view .LVU140
 571               		.loc 5 182 26 is_stmt 0 view .LVU141
 572 002a F801      		movw r30,r16
 573 002c E80F      		add r30,r24
 574 002e F11D      		adc r31,__zero_reg__
 575 0030 9083      		st Z,r25
 183:quantum/rgb_matrix.c ****         led_count++;
 576               		.loc 5 183 9 is_stmt 1 view .LVU142
 577               		.loc 5 183 18 is_stmt 0 view .LVU143
 578 0032 8F5F      		subi r24,lo8(-(1))
 579               	.LVL43:
 184:quantum/rgb_matrix.c ****     }
 185:quantum/rgb_matrix.c ****     return led_count;
 580               		.loc 5 185 5 is_stmt 1 view .LVU144
 581               	.L28:
 582               	/* epilogue start */
 186:quantum/rgb_matrix.c **** }
 583               		.loc 5 186 1 is_stmt 0 view .LVU145
 584 0034 DF91      		pop r29
 585               	.LVL44:
 586               		.loc 5 186 1 view .LVU146
 587 0036 CF91      		pop r28
 588               	.LVL45:
 589               		.loc 5 186 1 view .LVU147
 590 0038 1F91      		pop r17
 591 003a 0F91      		pop r16
 592               	.LVL46:
 593               		.loc 5 186 1 view .LVU148
 594 003c 0895      		ret
 595               		.cfi_endproc
 596               	.LFE115:
 598               		.section	.text.rgb_matrix_update_pwm_buffers,"ax",@progbits
 599               	.global	rgb_matrix_update_pwm_buffers
 601               	rgb_matrix_update_pwm_buffers:
 602               	.LFB116:
 187:quantum/rgb_matrix.c **** 
 188:quantum/rgb_matrix.c **** void rgb_matrix_update_pwm_buffers(void) { rgb_matrix_driver.flush(); }
 603               		.loc 5 188 42 is_stmt 1 view -0
 604               		.cfi_startproc
 605               	/* prologue: function */
 606               	/* frame size = 0 */
 607               	/* stack size = 0 */
 608               	.L__stack_usage = 0
 609               		.loc 5 188 44 view .LVU150
 610 0000 E091 0000 		lds r30,rgb_matrix_driver+6
 611 0004 F091 0000 		lds r31,rgb_matrix_driver+6+1
 612 0008 0994      		ijmp
 613               	.LVL47:
 614               		.cfi_endproc
 615               	.LFE116:
 617               		.section	.text.rgb_matrix_set_color,"ax",@progbits
 618               	.global	rgb_matrix_set_color
 620               	rgb_matrix_set_color:
 621               	.LVL48:
 622               	.LFB117:
 189:quantum/rgb_matrix.c **** 
 190:quantum/rgb_matrix.c **** void rgb_matrix_set_color(int index, uint8_t red, uint8_t green, uint8_t blue) {
 623               		.loc 5 190 80 view -0
 624               		.cfi_startproc
 625               	/* prologue: function */
 626               	/* frame size = 0 */
 627               	/* stack size = 0 */
 628               	.L__stack_usage = 0
 191:quantum/rgb_matrix.c **** #if defined(RGB_MATRIX_ENABLE) && defined(RGB_MATRIX_SPLIT)
 192:quantum/rgb_matrix.c ****     if (!is_keyboard_left() && index >= k_rgb_matrix_split[0])
 193:quantum/rgb_matrix.c ****         rgb_matrix_driver.set_color(index - k_rgb_matrix_split[0], red, green, blue);
 194:quantum/rgb_matrix.c ****     else if (is_keyboard_left() && index < k_rgb_matrix_split[0])
 195:quantum/rgb_matrix.c **** #endif
 196:quantum/rgb_matrix.c ****         rgb_matrix_driver.set_color(index, red, green, blue);
 629               		.loc 5 196 9 view .LVU152
 630 0000 E091 0000 		lds r30,rgb_matrix_driver+2
 631 0004 F091 0000 		lds r31,rgb_matrix_driver+2+1
 632 0008 0994      		ijmp
 633               	.LVL49:
 634               		.loc 5 196 9 is_stmt 0 view .LVU153
 635               		.cfi_endproc
 636               	.LFE117:
 638               		.section	.text.effect_runner_dx_dy_dist,"ax",@progbits
 639               	.global	effect_runner_dx_dy_dist
 641               	effect_runner_dx_dy_dist:
 642               	.LVL50:
 643               	.LFB97:
 644               		.file 6 "quantum/rgb_matrix_runners/effect_runner_dx_dy_dist.h"
   1:quantum/rgb_matrix_runners/effect_runner_dx_dy_dist.h **** #pragma once
   2:quantum/rgb_matrix_runners/effect_runner_dx_dy_dist.h **** 
   3:quantum/rgb_matrix_runners/effect_runner_dx_dy_dist.h **** typedef HSV (*dx_dy_dist_f)(HSV hsv, int16_t dx, int16_t dy, uint8_t dist, uint8_t time);
   4:quantum/rgb_matrix_runners/effect_runner_dx_dy_dist.h **** 
   5:quantum/rgb_matrix_runners/effect_runner_dx_dy_dist.h **** bool effect_runner_dx_dy_dist(effect_params_t* params, dx_dy_dist_f effect_func) {
 645               		.loc 6 5 82 is_stmt 1 view -0
 646               		.cfi_startproc
 647               		.loc 6 5 82 is_stmt 0 view .LVU155
 648 0000 3F92      		push r3
 649               	.LCFI7:
 650               		.cfi_def_cfa_offset 3
 651               		.cfi_offset 3, -2
 652 0002 4F92      		push r4
 653               	.LCFI8:
 654               		.cfi_def_cfa_offset 4
 655               		.cfi_offset 4, -3
 656 0004 5F92      		push r5
 657               	.LCFI9:
 658               		.cfi_def_cfa_offset 5
 659               		.cfi_offset 5, -4
 660 0006 6F92      		push r6
 661               	.LCFI10:
 662               		.cfi_def_cfa_offset 6
 663               		.cfi_offset 6, -5
 664 0008 7F92      		push r7
 665               	.LCFI11:
 666               		.cfi_def_cfa_offset 7
 667               		.cfi_offset 7, -6
 668 000a 8F92      		push r8
 669               	.LCFI12:
 670               		.cfi_def_cfa_offset 8
 671               		.cfi_offset 8, -7
 672 000c 9F92      		push r9
 673               	.LCFI13:
 674               		.cfi_def_cfa_offset 9
 675               		.cfi_offset 9, -8
 676 000e AF92      		push r10
 677               	.LCFI14:
 678               		.cfi_def_cfa_offset 10
 679               		.cfi_offset 10, -9
 680 0010 BF92      		push r11
 681               	.LCFI15:
 682               		.cfi_def_cfa_offset 11
 683               		.cfi_offset 11, -10
 684 0012 CF92      		push r12
 685               	.LCFI16:
 686               		.cfi_def_cfa_offset 12
 687               		.cfi_offset 12, -11
 688 0014 DF92      		push r13
 689               	.LCFI17:
 690               		.cfi_def_cfa_offset 13
 691               		.cfi_offset 13, -12
 692 0016 EF92      		push r14
 693               	.LCFI18:
 694               		.cfi_def_cfa_offset 14
 695               		.cfi_offset 14, -13
 696 0018 FF92      		push r15
 697               	.LCFI19:
 698               		.cfi_def_cfa_offset 15
 699               		.cfi_offset 15, -14
 700 001a 0F93      		push r16
 701               	.LCFI20:
 702               		.cfi_def_cfa_offset 16
 703               		.cfi_offset 16, -15
 704 001c 1F93      		push r17
 705               	.LCFI21:
 706               		.cfi_def_cfa_offset 17
 707               		.cfi_offset 17, -16
 708 001e CF93      		push r28
 709               	.LCFI22:
 710               		.cfi_def_cfa_offset 18
 711               		.cfi_offset 28, -17
 712 0020 DF93      		push r29
 713               	.LCFI23:
 714               		.cfi_def_cfa_offset 19
 715               		.cfi_offset 29, -18
 716               	/* prologue: function */
 717               	/* frame size = 0 */
 718               	/* stack size = 17 */
 719               	.L__stack_usage = 17
 720 0022 3C01      		movw r6,r24
 721 0024 2B01      		movw r4,r22
   6:quantum/rgb_matrix_runners/effect_runner_dx_dy_dist.h ****     RGB_MATRIX_USE_LIMITS(led_min, led_max);
 722               		.loc 6 6 5 is_stmt 1 view .LVU156
 723 0026 FC01      		movw r30,r24
 724 0028 C081      		ld r28,Z
 725 002a 8BE0      		ldi r24,lo8(11)
 726               	.LVL51:
 727               		.loc 6 6 5 is_stmt 0 view .LVU157
 728 002c C89F      		mul r28,r24
 729 002e C02D      		mov r28,r0
 730 0030 1124      		clr r1
 731               	.LVL52:
 732               		.loc 6 6 5 is_stmt 1 view .LVU158
 733 0032 1BE0      		ldi r17,lo8(11)
 734 0034 1C0F      		add r17,r28
 735               	.LVL53:
 736               		.loc 6 6 5 view .LVU159
 737 0036 F12E      		mov r15,r17
 738 0038 1633      		cpi r17,lo8(54)
 739 003a 00F0      		brlo .L36
 740 003c 35E3      		ldi r19,lo8(53)
 741 003e F32E      		mov r15,r19
 742               	.L36:
 743               	.LVL54:
 744               		.loc 6 6 44 view .LVU160
   7:quantum/rgb_matrix_runners/effect_runner_dx_dy_dist.h **** 
   8:quantum/rgb_matrix_runners/effect_runner_dx_dy_dist.h ****     uint8_t time = scale16by8(g_rgb_timer, rgb_matrix_config.speed / 2);
 745               		.loc 6 8 5 view .LVU161
 746               		.loc 6 8 20 is_stmt 0 view .LVU162
 747 0040 6091 0000 		lds r22,rgb_matrix_config+4
 748               	.LVL55:
 749               		.loc 6 8 20 view .LVU163
 750 0044 6695      		lsr r22
 751 0046 8091 0000 		lds r24,g_rgb_timer
 752 004a 9091 0000 		lds r25,g_rgb_timer+1
 753 004e 0E94 0000 		call scale16by8
 754               	.LVL56:
 755 0052 382E      		mov r3,r24
 756               	.LVL57:
   9:quantum/rgb_matrix_runners/effect_runner_dx_dy_dist.h ****     for (uint8_t i = led_min; i < led_max; i++) {
 757               		.loc 6 9 5 is_stmt 1 view .LVU164
 758               	.LBB32:
 759               		.loc 6 9 10 view .LVU165
 760               		.loc 6 9 10 is_stmt 0 view .LVU166
 761 0054 D0E0      		ldi r29,0
 762 0056 CE01      		movw r24,r28
 763 0058 880F      		lsl r24
 764 005a 991F      		rol r25
 765 005c 9C01      		movw r18,r24
 766 005e 2050      		subi r18,lo8(-(g_led_config))
 767 0060 3040      		sbci r19,hi8(-(g_led_config))
 768 0062 6901      		movw r12,r18
 769               	.LVL58:
 770               	.L37:
 771               		.loc 6 9 31 is_stmt 1 discriminator 1 view .LVU167
 772               		.loc 6 9 5 is_stmt 0 discriminator 1 view .LVU168
 773 0064 CF15      		cp r28,r15
 774 0066 00F0      		brlo .L40
 775               	.LBE32:
  10:quantum/rgb_matrix_runners/effect_runner_dx_dy_dist.h ****         RGB_MATRIX_TEST_LED_FLAGS();
  11:quantum/rgb_matrix_runners/effect_runner_dx_dy_dist.h ****         int16_t dx   = g_led_config.point[i].x - k_rgb_matrix_center.x;
  12:quantum/rgb_matrix_runners/effect_runner_dx_dy_dist.h ****         int16_t dy   = g_led_config.point[i].y - k_rgb_matrix_center.y;
  13:quantum/rgb_matrix_runners/effect_runner_dx_dy_dist.h ****         uint8_t dist = sqrt16(dx * dx + dy * dy);
  14:quantum/rgb_matrix_runners/effect_runner_dx_dy_dist.h ****         RGB     rgb  = rgb_matrix_hsv_to_rgb(effect_func(rgb_matrix_config.hsv, dx, dy, dist, time)
  15:quantum/rgb_matrix_runners/effect_runner_dx_dy_dist.h ****         rgb_matrix_set_color(i, rgb.r, rgb.g, rgb.b);
  16:quantum/rgb_matrix_runners/effect_runner_dx_dy_dist.h ****     }
  17:quantum/rgb_matrix_runners/effect_runner_dx_dy_dist.h ****     return led_max < DRIVER_LED_TOTAL;
 776               		.loc 6 17 5 is_stmt 1 view .LVU169
 777               		.loc 6 17 20 is_stmt 0 view .LVU170
 778 0068 81E0      		ldi r24,lo8(1)
 779 006a 1533      		cpi r17,lo8(53)
 780 006c 00F0      		brlo .L41
 781 006e 80E0      		ldi r24,0
 782               	.L41:
 783               	/* epilogue start */
  18:quantum/rgb_matrix_runners/effect_runner_dx_dy_dist.h **** }
 784               		.loc 6 18 1 view .LVU171
 785 0070 DF91      		pop r29
 786 0072 CF91      		pop r28
 787               	.LVL59:
 788               		.loc 6 18 1 view .LVU172
 789 0074 1F91      		pop r17
 790 0076 0F91      		pop r16
 791 0078 FF90      		pop r15
 792               	.LVL60:
 793               		.loc 6 18 1 view .LVU173
 794 007a EF90      		pop r14
 795 007c DF90      		pop r13
 796 007e CF90      		pop r12
 797 0080 BF90      		pop r11
 798 0082 AF90      		pop r10
 799 0084 9F90      		pop r9
 800 0086 8F90      		pop r8
 801 0088 7F90      		pop r7
 802 008a 6F90      		pop r6
 803               	.LVL61:
 804               		.loc 6 18 1 view .LVU174
 805 008c 5F90      		pop r5
 806 008e 4F90      		pop r4
 807               	.LVL62:
 808               		.loc 6 18 1 view .LVU175
 809 0090 3F90      		pop r3
 810               	.LVL63:
 811               		.loc 6 18 1 view .LVU176
 812 0092 0895      		ret
 813               	.LVL64:
 814               	.L40:
 815               	.LBB34:
 816               	.LBB33:
  10:quantum/rgb_matrix_runners/effect_runner_dx_dy_dist.h ****         RGB_MATRIX_TEST_LED_FLAGS();
 817               		.loc 6 10 9 is_stmt 1 view .LVU177
 818 0094 FE01      		movw r30,r28
 819 0096 E050      		subi r30,lo8(-(g_led_config+154))
 820 0098 F040      		sbci r31,hi8(-(g_led_config+154))
 821 009a 8081      		ld r24,Z
 822 009c F301      		movw r30,r6
 823 009e 9181      		ldd r25,Z+1
 824 00a0 8923      		and r24,r25
 825 00a2 01F0      		breq .L39
  11:quantum/rgb_matrix_runners/effect_runner_dx_dy_dist.h ****         int16_t dy   = g_led_config.point[i].y - k_rgb_matrix_center.y;
 826               		.loc 6 11 9 view .LVU178
  11:quantum/rgb_matrix_runners/effect_runner_dx_dy_dist.h ****         int16_t dy   = g_led_config.point[i].y - k_rgb_matrix_center.y;
 827               		.loc 6 11 45 is_stmt 0 view .LVU179
 828 00a4 F601      		movw r30,r12
 829 00a6 80A9      		ldd r24,Z+48
  11:quantum/rgb_matrix_runners/effect_runner_dx_dy_dist.h ****         int16_t dy   = g_led_config.point[i].y - k_rgb_matrix_center.y;
 830               		.loc 6 11 17 view .LVU180
 831 00a8 282F      		mov r18,r24
 832 00aa 2057      		subi r18,112
 833 00ac 330B      		sbc r19,r19
 834 00ae 5901      		movw r10,r18
 835               	.LVL65:
  12:quantum/rgb_matrix_runners/effect_runner_dx_dy_dist.h ****         uint8_t dist = sqrt16(dx * dx + dy * dy);
 836               		.loc 6 12 9 is_stmt 1 view .LVU181
  12:quantum/rgb_matrix_runners/effect_runner_dx_dy_dist.h ****         uint8_t dist = sqrt16(dx * dx + dy * dy);
 837               		.loc 6 12 45 is_stmt 0 view .LVU182
 838 00b0 81A9      		ldd r24,Z+49
  12:quantum/rgb_matrix_runners/effect_runner_dx_dy_dist.h ****         uint8_t dist = sqrt16(dx * dx + dy * dy);
 839               		.loc 6 12 17 view .LVU183
 840 00b2 E82F      		mov r30,r24
 841 00b4 E052      		subi r30,32
 842 00b6 FF0B      		sbc r31,r31
 843 00b8 4F01      		movw r8,r30
 844               	.LVL66:
  13:quantum/rgb_matrix_runners/effect_runner_dx_dy_dist.h ****         RGB     rgb  = rgb_matrix_hsv_to_rgb(effect_func(rgb_matrix_config.hsv, dx, dy, dist, time)
 845               		.loc 6 13 9 is_stmt 1 view .LVU184
  13:quantum/rgb_matrix_runners/effect_runner_dx_dy_dist.h ****         RGB     rgb  = rgb_matrix_hsv_to_rgb(effect_func(rgb_matrix_config.hsv, dx, dy, dist, time)
 846               		.loc 6 13 34 is_stmt 0 view .LVU185
 847 00ba AA9C      		mul r10,r10
 848 00bc 9001      		movw r18,r0
 849 00be AB9C      		mul r10,r11
 850 00c0 300D      		add r19,r0
 851 00c2 300D      		add r19,r0
 852 00c4 1124      		clr r1
  13:quantum/rgb_matrix_runners/effect_runner_dx_dy_dist.h ****         RGB     rgb  = rgb_matrix_hsv_to_rgb(effect_func(rgb_matrix_config.hsv, dx, dy, dist, time)
 853               		.loc 6 13 44 view .LVU186
 854 00c6 EE9F      		mul r30,r30
 855 00c8 C001      		movw r24,r0
 856 00ca EF9F      		mul r30,r31
 857 00cc 900D      		add r25,r0
 858 00ce 900D      		add r25,r0
 859 00d0 1124      		clr r1
  13:quantum/rgb_matrix_runners/effect_runner_dx_dy_dist.h ****         RGB     rgb  = rgb_matrix_hsv_to_rgb(effect_func(rgb_matrix_config.hsv, dx, dy, dist, time)
 860               		.loc 6 13 24 view .LVU187
 861 00d2 820F      		add r24,r18
 862 00d4 931F      		adc r25,r19
 863 00d6 0E94 0000 		call sqrt16
 864               	.LVL67:
 865 00da 082F      		mov r16,r24
 866               	.LVL68:
  14:quantum/rgb_matrix_runners/effect_runner_dx_dy_dist.h ****         rgb_matrix_set_color(i, rgb.r, rgb.g, rgb.b);
 867               		.loc 6 14 9 is_stmt 1 view .LVU188
  14:quantum/rgb_matrix_runners/effect_runner_dx_dy_dist.h ****         rgb_matrix_set_color(i, rgb.r, rgb.g, rgb.b);
 868               		.loc 6 14 24 is_stmt 0 view .LVU189
 869 00dc 6091 0000 		lds r22,rgb_matrix_config+1
 870 00e0 7091 0000 		lds r23,rgb_matrix_config+1+1
 871 00e4 8091 0000 		lds r24,rgb_matrix_config+1+2
 872 00e8 E32C      		mov r14,r3
 873 00ea 9401      		movw r18,r8
 874 00ec A501      		movw r20,r10
 875 00ee F201      		movw r30,r4
 876 00f0 0995      		icall
 877               	.LVL69:
 878 00f2 0E94 0000 		call rgb_matrix_hsv_to_rgb
 879               	.LVL70:
 880 00f6 462F      		mov r20,r22
 881               	.LVL71:
  15:quantum/rgb_matrix_runners/effect_runner_dx_dy_dist.h ****     }
 882               		.loc 6 15 9 is_stmt 1 view .LVU190
  15:quantum/rgb_matrix_runners/effect_runner_dx_dy_dist.h ****     }
 883               		.loc 6 15 9 is_stmt 0 view .LVU191
 884 00f8 282F      		mov r18,r24
  15:quantum/rgb_matrix_runners/effect_runner_dx_dy_dist.h ****     }
 885               		.loc 6 15 9 view .LVU192
 886 00fa 672F      		mov r22,r23
 887 00fc CE01      		movw r24,r28
  15:quantum/rgb_matrix_runners/effect_runner_dx_dy_dist.h ****     }
 888               		.loc 6 15 9 view .LVU193
 889 00fe 0E94 0000 		call rgb_matrix_set_color
 890               	.LVL72:
 891               	.L39:
  15:quantum/rgb_matrix_runners/effect_runner_dx_dy_dist.h ****     }
 892               		.loc 6 15 9 view .LVU194
 893               	.LBE33:
   9:quantum/rgb_matrix_runners/effect_runner_dx_dy_dist.h ****         RGB_MATRIX_TEST_LED_FLAGS();
 894               		.loc 6 9 44 is_stmt 1 discriminator 2 view .LVU195
   9:quantum/rgb_matrix_runners/effect_runner_dx_dy_dist.h ****         RGB_MATRIX_TEST_LED_FLAGS();
 895               		.loc 6 9 44 is_stmt 0 discriminator 2 view .LVU196
 896 0102 F2E0      		ldi r31,2
 897 0104 CF0E      		add r12,r31
 898 0106 D11C      		adc r13,__zero_reg__
 899 0108 2196      		adiw r28,1
 900               	.LVL73:
   9:quantum/rgb_matrix_runners/effect_runner_dx_dy_dist.h ****         RGB_MATRIX_TEST_LED_FLAGS();
 901               		.loc 6 9 44 discriminator 2 view .LVU197
 902 010a 00C0      		rjmp .L37
 903               	.LBE34:
 904               		.cfi_endproc
 905               	.LFE97:
 907               		.section	.text.effect_runner_dx_dy,"ax",@progbits
 908               	.global	effect_runner_dx_dy
 910               	effect_runner_dx_dy:
 911               	.LVL74:
 912               	.LFB98:
 913               		.file 7 "quantum/rgb_matrix_runners/effect_runner_dx_dy.h"
   1:quantum/rgb_matrix_runners/effect_runner_dx_dy.h **** #pragma once
   2:quantum/rgb_matrix_runners/effect_runner_dx_dy.h **** 
   3:quantum/rgb_matrix_runners/effect_runner_dx_dy.h **** typedef HSV (*dx_dy_f)(HSV hsv, int16_t dx, int16_t dy, uint8_t time);
   4:quantum/rgb_matrix_runners/effect_runner_dx_dy.h **** 
   5:quantum/rgb_matrix_runners/effect_runner_dx_dy.h **** bool effect_runner_dx_dy(effect_params_t* params, dx_dy_f effect_func) {
 914               		.loc 7 5 72 is_stmt 1 view -0
 915               		.cfi_startproc
 916               		.loc 7 5 72 is_stmt 0 view .LVU199
 917 0000 8F92      		push r8
 918               	.LCFI24:
 919               		.cfi_def_cfa_offset 3
 920               		.cfi_offset 8, -2
 921 0002 9F92      		push r9
 922               	.LCFI25:
 923               		.cfi_def_cfa_offset 4
 924               		.cfi_offset 9, -3
 925 0004 AF92      		push r10
 926               	.LCFI26:
 927               		.cfi_def_cfa_offset 5
 928               		.cfi_offset 10, -4
 929 0006 BF92      		push r11
 930               	.LCFI27:
 931               		.cfi_def_cfa_offset 6
 932               		.cfi_offset 11, -5
 933 0008 CF92      		push r12
 934               	.LCFI28:
 935               		.cfi_def_cfa_offset 7
 936               		.cfi_offset 12, -6
 937 000a DF92      		push r13
 938               	.LCFI29:
 939               		.cfi_def_cfa_offset 8
 940               		.cfi_offset 13, -7
 941 000c EF92      		push r14
 942               	.LCFI30:
 943               		.cfi_def_cfa_offset 9
 944               		.cfi_offset 14, -8
 945 000e FF92      		push r15
 946               	.LCFI31:
 947               		.cfi_def_cfa_offset 10
 948               		.cfi_offset 15, -9
 949 0010 0F93      		push r16
 950               	.LCFI32:
 951               		.cfi_def_cfa_offset 11
 952               		.cfi_offset 16, -10
 953 0012 1F93      		push r17
 954               	.LCFI33:
 955               		.cfi_def_cfa_offset 12
 956               		.cfi_offset 17, -11
 957 0014 CF93      		push r28
 958               	.LCFI34:
 959               		.cfi_def_cfa_offset 13
 960               		.cfi_offset 28, -12
 961 0016 DF93      		push r29
 962               	.LCFI35:
 963               		.cfi_def_cfa_offset 14
 964               		.cfi_offset 29, -13
 965               	/* prologue: function */
 966               	/* frame size = 0 */
 967               	/* stack size = 12 */
 968               	.L__stack_usage = 12
 969 0018 5C01      		movw r10,r24
 970 001a 6B01      		movw r12,r22
   6:quantum/rgb_matrix_runners/effect_runner_dx_dy.h ****     RGB_MATRIX_USE_LIMITS(led_min, led_max);
 971               		.loc 7 6 5 is_stmt 1 view .LVU200
 972 001c FC01      		movw r30,r24
 973 001e C081      		ld r28,Z
 974 0020 8BE0      		ldi r24,lo8(11)
 975               	.LVL75:
 976               		.loc 7 6 5 is_stmt 0 view .LVU201
 977 0022 C89F      		mul r28,r24
 978 0024 C02D      		mov r28,r0
 979 0026 1124      		clr r1
 980               	.LVL76:
 981               		.loc 7 6 5 is_stmt 1 view .LVU202
 982 0028 1BE0      		ldi r17,lo8(11)
 983 002a 1C0F      		add r17,r28
 984               	.LVL77:
 985               		.loc 7 6 5 view .LVU203
 986 002c 912E      		mov r9,r17
 987 002e 1633      		cpi r17,lo8(54)
 988 0030 00F0      		brlo .L43
 989 0032 35E3      		ldi r19,lo8(53)
 990 0034 932E      		mov r9,r19
 991               	.L43:
 992               	.LVL78:
 993               		.loc 7 6 44 view .LVU204
   7:quantum/rgb_matrix_runners/effect_runner_dx_dy.h **** 
   8:quantum/rgb_matrix_runners/effect_runner_dx_dy.h ****     uint8_t time = scale16by8(g_rgb_timer, rgb_matrix_config.speed / 2);
 994               		.loc 7 8 5 view .LVU205
 995               		.loc 7 8 20 is_stmt 0 view .LVU206
 996 0036 6091 0000 		lds r22,rgb_matrix_config+4
 997               	.LVL79:
 998               		.loc 7 8 20 view .LVU207
 999 003a 6695      		lsr r22
 1000 003c 8091 0000 		lds r24,g_rgb_timer
 1001 0040 9091 0000 		lds r25,g_rgb_timer+1
 1002 0044 0E94 0000 		call scale16by8
 1003               	.LVL80:
 1004 0048 882E      		mov r8,r24
 1005               	.LVL81:
   9:quantum/rgb_matrix_runners/effect_runner_dx_dy.h ****     for (uint8_t i = led_min; i < led_max; i++) {
 1006               		.loc 7 9 5 is_stmt 1 view .LVU208
 1007               	.LBB35:
 1008               		.loc 7 9 10 view .LVU209
 1009               		.loc 7 9 10 is_stmt 0 view .LVU210
 1010 004a D0E0      		ldi r29,0
 1011 004c CE01      		movw r24,r28
 1012 004e 880F      		lsl r24
 1013 0050 991F      		rol r25
 1014 0052 9C01      		movw r18,r24
 1015 0054 2050      		subi r18,lo8(-(g_led_config))
 1016 0056 3040      		sbci r19,hi8(-(g_led_config))
 1017 0058 7901      		movw r14,r18
 1018               	.LVL82:
 1019               	.L44:
 1020               		.loc 7 9 31 is_stmt 1 discriminator 1 view .LVU211
 1021               		.loc 7 9 5 is_stmt 0 discriminator 1 view .LVU212
 1022 005a C915      		cp r28,r9
 1023 005c 00F0      		brlo .L47
 1024               	.LBE35:
  10:quantum/rgb_matrix_runners/effect_runner_dx_dy.h ****         RGB_MATRIX_TEST_LED_FLAGS();
  11:quantum/rgb_matrix_runners/effect_runner_dx_dy.h ****         int16_t dx  = g_led_config.point[i].x - k_rgb_matrix_center.x;
  12:quantum/rgb_matrix_runners/effect_runner_dx_dy.h ****         int16_t dy  = g_led_config.point[i].y - k_rgb_matrix_center.y;
  13:quantum/rgb_matrix_runners/effect_runner_dx_dy.h ****         RGB     rgb = rgb_matrix_hsv_to_rgb(effect_func(rgb_matrix_config.hsv, dx, dy, time));
  14:quantum/rgb_matrix_runners/effect_runner_dx_dy.h ****         rgb_matrix_set_color(i, rgb.r, rgb.g, rgb.b);
  15:quantum/rgb_matrix_runners/effect_runner_dx_dy.h ****     }
  16:quantum/rgb_matrix_runners/effect_runner_dx_dy.h ****     return led_max < DRIVER_LED_TOTAL;
 1025               		.loc 7 16 5 is_stmt 1 view .LVU213
 1026               		.loc 7 16 20 is_stmt 0 view .LVU214
 1027 005e 81E0      		ldi r24,lo8(1)
 1028 0060 1533      		cpi r17,lo8(53)
 1029 0062 00F0      		brlo .L48
 1030 0064 80E0      		ldi r24,0
 1031               	.L48:
 1032               	/* epilogue start */
  17:quantum/rgb_matrix_runners/effect_runner_dx_dy.h **** }
 1033               		.loc 7 17 1 view .LVU215
 1034 0066 DF91      		pop r29
 1035 0068 CF91      		pop r28
 1036               	.LVL83:
 1037               		.loc 7 17 1 view .LVU216
 1038 006a 1F91      		pop r17
 1039 006c 0F91      		pop r16
 1040 006e FF90      		pop r15
 1041 0070 EF90      		pop r14
 1042 0072 DF90      		pop r13
 1043 0074 CF90      		pop r12
 1044               	.LVL84:
 1045               		.loc 7 17 1 view .LVU217
 1046 0076 BF90      		pop r11
 1047 0078 AF90      		pop r10
 1048               	.LVL85:
 1049               		.loc 7 17 1 view .LVU218
 1050 007a 9F90      		pop r9
 1051               	.LVL86:
 1052               		.loc 7 17 1 view .LVU219
 1053 007c 8F90      		pop r8
 1054               	.LVL87:
 1055               		.loc 7 17 1 view .LVU220
 1056 007e 0895      		ret
 1057               	.LVL88:
 1058               	.L47:
 1059               	.LBB37:
 1060               	.LBB36:
  10:quantum/rgb_matrix_runners/effect_runner_dx_dy.h ****         RGB_MATRIX_TEST_LED_FLAGS();
 1061               		.loc 7 10 9 is_stmt 1 view .LVU221
 1062 0080 FE01      		movw r30,r28
 1063 0082 E050      		subi r30,lo8(-(g_led_config+154))
 1064 0084 F040      		sbci r31,hi8(-(g_led_config+154))
 1065 0086 8081      		ld r24,Z
 1066 0088 F501      		movw r30,r10
 1067 008a 9181      		ldd r25,Z+1
 1068 008c 8923      		and r24,r25
 1069 008e 01F0      		breq .L46
  11:quantum/rgb_matrix_runners/effect_runner_dx_dy.h ****         int16_t dy  = g_led_config.point[i].y - k_rgb_matrix_center.y;
 1070               		.loc 7 11 9 view .LVU222
 1071               	.LVL89:
  12:quantum/rgb_matrix_runners/effect_runner_dx_dy.h ****         RGB     rgb = rgb_matrix_hsv_to_rgb(effect_func(rgb_matrix_config.hsv, dx, dy, time));
 1072               		.loc 7 12 9 view .LVU223
  13:quantum/rgb_matrix_runners/effect_runner_dx_dy.h ****         rgb_matrix_set_color(i, rgb.r, rgb.g, rgb.b);
 1073               		.loc 7 13 9 view .LVU224
  12:quantum/rgb_matrix_runners/effect_runner_dx_dy.h ****         RGB     rgb = rgb_matrix_hsv_to_rgb(effect_func(rgb_matrix_config.hsv, dx, dy, time));
 1074               		.loc 7 12 44 is_stmt 0 view .LVU225
 1075 0090 F701      		movw r30,r14
 1076 0092 21A9      		ldd r18,Z+49
  12:quantum/rgb_matrix_runners/effect_runner_dx_dy.h ****         RGB     rgb = rgb_matrix_hsv_to_rgb(effect_func(rgb_matrix_config.hsv, dx, dy, time));
 1077               		.loc 7 12 17 view .LVU226
 1078 0094 2052      		subi r18,32
 1079 0096 330B      		sbc r19,r19
 1080               	.LVL90:
  11:quantum/rgb_matrix_runners/effect_runner_dx_dy.h ****         int16_t dy  = g_led_config.point[i].y - k_rgb_matrix_center.y;
 1081               		.loc 7 11 44 view .LVU227
 1082 0098 40A9      		ldd r20,Z+48
  11:quantum/rgb_matrix_runners/effect_runner_dx_dy.h ****         int16_t dy  = g_led_config.point[i].y - k_rgb_matrix_center.y;
 1083               		.loc 7 11 17 view .LVU228
 1084 009a 4057      		subi r20,112
 1085 009c 550B      		sbc r21,r21
 1086               	.LVL91:
  13:quantum/rgb_matrix_runners/effect_runner_dx_dy.h ****         rgb_matrix_set_color(i, rgb.r, rgb.g, rgb.b);
 1087               		.loc 7 13 23 view .LVU229
 1088 009e 6091 0000 		lds r22,rgb_matrix_config+1
 1089 00a2 7091 0000 		lds r23,rgb_matrix_config+1+1
 1090 00a6 8091 0000 		lds r24,rgb_matrix_config+1+2
 1091 00aa 082D      		mov r16,r8
 1092 00ac F601      		movw r30,r12
 1093 00ae 0995      		icall
 1094               	.LVL92:
  13:quantum/rgb_matrix_runners/effect_runner_dx_dy.h ****         rgb_matrix_set_color(i, rgb.r, rgb.g, rgb.b);
 1095               		.loc 7 13 23 view .LVU230
 1096 00b0 0E94 0000 		call rgb_matrix_hsv_to_rgb
 1097               	.LVL93:
 1098 00b4 462F      		mov r20,r22
 1099               	.LVL94:
  14:quantum/rgb_matrix_runners/effect_runner_dx_dy.h ****     }
 1100               		.loc 7 14 9 is_stmt 1 view .LVU231
  14:quantum/rgb_matrix_runners/effect_runner_dx_dy.h ****     }
 1101               		.loc 7 14 9 is_stmt 0 view .LVU232
 1102 00b6 282F      		mov r18,r24
  14:quantum/rgb_matrix_runners/effect_runner_dx_dy.h ****     }
 1103               		.loc 7 14 9 view .LVU233
 1104 00b8 672F      		mov r22,r23
 1105 00ba CE01      		movw r24,r28
  14:quantum/rgb_matrix_runners/effect_runner_dx_dy.h ****     }
 1106               		.loc 7 14 9 view .LVU234
 1107 00bc 0E94 0000 		call rgb_matrix_set_color
 1108               	.LVL95:
 1109               	.L46:
  14:quantum/rgb_matrix_runners/effect_runner_dx_dy.h ****     }
 1110               		.loc 7 14 9 view .LVU235
 1111               	.LBE36:
   9:quantum/rgb_matrix_runners/effect_runner_dx_dy.h ****         RGB_MATRIX_TEST_LED_FLAGS();
 1112               		.loc 7 9 44 is_stmt 1 discriminator 2 view .LVU236
   9:quantum/rgb_matrix_runners/effect_runner_dx_dy.h ****         RGB_MATRIX_TEST_LED_FLAGS();
 1113               		.loc 7 9 44 is_stmt 0 discriminator 2 view .LVU237
 1114 00c0 F2E0      		ldi r31,2
 1115 00c2 EF0E      		add r14,r31
 1116 00c4 F11C      		adc r15,__zero_reg__
 1117 00c6 2196      		adiw r28,1
 1118               	.LVL96:
   9:quantum/rgb_matrix_runners/effect_runner_dx_dy.h ****         RGB_MATRIX_TEST_LED_FLAGS();
 1119               		.loc 7 9 44 discriminator 2 view .LVU238
 1120 00c8 00C0      		rjmp .L44
 1121               	.LBE37:
 1122               		.cfi_endproc
 1123               	.LFE98:
 1125               		.section	.text.effect_runner_i,"ax",@progbits
 1126               	.global	effect_runner_i
 1128               	effect_runner_i:
 1129               	.LVL97:
 1130               	.LFB99:
 1131               		.file 8 "quantum/rgb_matrix_runners/effect_runner_i.h"
   1:quantum/rgb_matrix_runners/effect_runner_i.h **** #pragma once
   2:quantum/rgb_matrix_runners/effect_runner_i.h **** 
   3:quantum/rgb_matrix_runners/effect_runner_i.h **** typedef HSV (*i_f)(HSV hsv, uint8_t i, uint8_t time);
   4:quantum/rgb_matrix_runners/effect_runner_i.h **** 
   5:quantum/rgb_matrix_runners/effect_runner_i.h **** bool effect_runner_i(effect_params_t* params, i_f effect_func) {
 1132               		.loc 8 5 64 is_stmt 1 view -0
 1133               		.cfi_startproc
 1134               		.loc 8 5 64 is_stmt 0 view .LVU240
 1135 0000 BF92      		push r11
 1136               	.LCFI36:
 1137               		.cfi_def_cfa_offset 3
 1138               		.cfi_offset 11, -2
 1139 0002 CF92      		push r12
 1140               	.LCFI37:
 1141               		.cfi_def_cfa_offset 4
 1142               		.cfi_offset 12, -3
 1143 0004 DF92      		push r13
 1144               	.LCFI38:
 1145               		.cfi_def_cfa_offset 5
 1146               		.cfi_offset 13, -4
 1147 0006 EF92      		push r14
 1148               	.LCFI39:
 1149               		.cfi_def_cfa_offset 6
 1150               		.cfi_offset 14, -5
 1151 0008 FF92      		push r15
 1152               	.LCFI40:
 1153               		.cfi_def_cfa_offset 7
 1154               		.cfi_offset 15, -6
 1155 000a 0F93      		push r16
 1156               	.LCFI41:
 1157               		.cfi_def_cfa_offset 8
 1158               		.cfi_offset 16, -7
 1159 000c 1F93      		push r17
 1160               	.LCFI42:
 1161               		.cfi_def_cfa_offset 9
 1162               		.cfi_offset 17, -8
 1163 000e CF93      		push r28
 1164               	.LCFI43:
 1165               		.cfi_def_cfa_offset 10
 1166               		.cfi_offset 28, -9
 1167 0010 DF93      		push r29
 1168               	.LCFI44:
 1169               		.cfi_def_cfa_offset 11
 1170               		.cfi_offset 29, -10
 1171               	/* prologue: function */
 1172               	/* frame size = 0 */
 1173               	/* stack size = 9 */
 1174               	.L__stack_usage = 9
 1175 0012 6C01      		movw r12,r24
 1176 0014 7B01      		movw r14,r22
   6:quantum/rgb_matrix_runners/effect_runner_i.h ****     RGB_MATRIX_USE_LIMITS(led_min, led_max);
 1177               		.loc 8 6 5 is_stmt 1 view .LVU241
 1178 0016 FC01      		movw r30,r24
 1179 0018 C081      		ld r28,Z
 1180 001a 8BE0      		ldi r24,lo8(11)
 1181               	.LVL98:
 1182               		.loc 8 6 5 is_stmt 0 view .LVU242
 1183 001c C89F      		mul r28,r24
 1184 001e C02D      		mov r28,r0
 1185 0020 1124      		clr r1
 1186               	.LVL99:
 1187               		.loc 8 6 5 is_stmt 1 view .LVU243
 1188 0022 1BE0      		ldi r17,lo8(11)
 1189 0024 1C0F      		add r17,r28
 1190               	.LVL100:
 1191               		.loc 8 6 5 view .LVU244
 1192 0026 012F      		mov r16,r17
 1193 0028 1633      		cpi r17,lo8(54)
 1194 002a 00F0      		brlo .L50
 1195 002c 05E3      		ldi r16,lo8(53)
 1196               	.L50:
 1197               	.LVL101:
 1198               		.loc 8 6 44 view .LVU245
   7:quantum/rgb_matrix_runners/effect_runner_i.h **** 
   8:quantum/rgb_matrix_runners/effect_runner_i.h ****     uint8_t time = scale16by8(g_rgb_timer, rgb_matrix_config.speed / 4);
 1199               		.loc 8 8 5 view .LVU246
 1200               		.loc 8 8 20 is_stmt 0 view .LVU247
 1201 002e 6091 0000 		lds r22,rgb_matrix_config+4
 1202               	.LVL102:
 1203               		.loc 8 8 20 view .LVU248
 1204 0032 6695      		lsr r22
 1205 0034 6695      		lsr r22
 1206 0036 8091 0000 		lds r24,g_rgb_timer
 1207 003a 9091 0000 		lds r25,g_rgb_timer+1
 1208 003e 0E94 0000 		call scale16by8
 1209               	.LVL103:
 1210 0042 B82E      		mov r11,r24
 1211               	.LVL104:
   9:quantum/rgb_matrix_runners/effect_runner_i.h ****     for (uint8_t i = led_min; i < led_max; i++) {
 1212               		.loc 8 9 5 is_stmt 1 view .LVU249
 1213               	.LBB38:
 1214               		.loc 8 9 10 view .LVU250
 1215               		.loc 8 9 10 is_stmt 0 view .LVU251
 1216 0044 D0E0      		ldi r29,0
 1217               	.LVL105:
 1218               	.L51:
 1219               		.loc 8 9 31 is_stmt 1 discriminator 1 view .LVU252
 1220               		.loc 8 9 5 is_stmt 0 discriminator 1 view .LVU253
 1221 0046 C017      		cp r28,r16
 1222 0048 00F0      		brlo .L54
 1223               	.LBE38:
  10:quantum/rgb_matrix_runners/effect_runner_i.h ****         RGB_MATRIX_TEST_LED_FLAGS();
  11:quantum/rgb_matrix_runners/effect_runner_i.h ****         RGB rgb = rgb_matrix_hsv_to_rgb(effect_func(rgb_matrix_config.hsv, i, time));
  12:quantum/rgb_matrix_runners/effect_runner_i.h ****         rgb_matrix_set_color(i, rgb.r, rgb.g, rgb.b);
  13:quantum/rgb_matrix_runners/effect_runner_i.h ****     }
  14:quantum/rgb_matrix_runners/effect_runner_i.h ****     return led_max < DRIVER_LED_TOTAL;
 1224               		.loc 8 14 5 is_stmt 1 view .LVU254
 1225               		.loc 8 14 20 is_stmt 0 view .LVU255
 1226 004a 81E0      		ldi r24,lo8(1)
 1227 004c 1533      		cpi r17,lo8(53)
 1228 004e 00F0      		brlo .L55
 1229 0050 80E0      		ldi r24,0
 1230               	.L55:
 1231               	/* epilogue start */
  15:quantum/rgb_matrix_runners/effect_runner_i.h **** }
 1232               		.loc 8 15 1 view .LVU256
 1233 0052 DF91      		pop r29
 1234 0054 CF91      		pop r28
 1235               	.LVL106:
 1236               		.loc 8 15 1 view .LVU257
 1237 0056 1F91      		pop r17
 1238 0058 0F91      		pop r16
 1239               	.LVL107:
 1240               		.loc 8 15 1 view .LVU258
 1241 005a FF90      		pop r15
 1242 005c EF90      		pop r14
 1243               	.LVL108:
 1244               		.loc 8 15 1 view .LVU259
 1245 005e DF90      		pop r13
 1246 0060 CF90      		pop r12
 1247               	.LVL109:
 1248               		.loc 8 15 1 view .LVU260
 1249 0062 BF90      		pop r11
 1250               	.LVL110:
 1251               		.loc 8 15 1 view .LVU261
 1252 0064 0895      		ret
 1253               	.LVL111:
 1254               	.L54:
 1255               	.LBB40:
 1256               	.LBB39:
  10:quantum/rgb_matrix_runners/effect_runner_i.h ****         RGB_MATRIX_TEST_LED_FLAGS();
 1257               		.loc 8 10 9 is_stmt 1 view .LVU262
 1258 0066 FE01      		movw r30,r28
 1259 0068 E050      		subi r30,lo8(-(g_led_config+154))
 1260 006a F040      		sbci r31,hi8(-(g_led_config+154))
 1261 006c 8081      		ld r24,Z
 1262 006e F601      		movw r30,r12
 1263 0070 9181      		ldd r25,Z+1
 1264 0072 8923      		and r24,r25
 1265 0074 01F0      		breq .L53
  11:quantum/rgb_matrix_runners/effect_runner_i.h ****         rgb_matrix_set_color(i, rgb.r, rgb.g, rgb.b);
 1266               		.loc 8 11 9 view .LVU263
  11:quantum/rgb_matrix_runners/effect_runner_i.h ****         rgb_matrix_set_color(i, rgb.r, rgb.g, rgb.b);
 1267               		.loc 8 11 19 is_stmt 0 view .LVU264
 1268 0076 6091 0000 		lds r22,rgb_matrix_config+1
 1269 007a 7091 0000 		lds r23,rgb_matrix_config+1+1
 1270 007e 8091 0000 		lds r24,rgb_matrix_config+1+2
 1271 0082 2B2D      		mov r18,r11
 1272 0084 4C2F      		mov r20,r28
 1273 0086 F701      		movw r30,r14
 1274 0088 0995      		icall
 1275               	.LVL112:
 1276 008a 0E94 0000 		call rgb_matrix_hsv_to_rgb
 1277               	.LVL113:
 1278 008e 462F      		mov r20,r22
 1279               	.LVL114:
  12:quantum/rgb_matrix_runners/effect_runner_i.h ****     }
 1280               		.loc 8 12 9 is_stmt 1 view .LVU265
  12:quantum/rgb_matrix_runners/effect_runner_i.h ****     }
 1281               		.loc 8 12 9 is_stmt 0 view .LVU266
 1282 0090 282F      		mov r18,r24
  12:quantum/rgb_matrix_runners/effect_runner_i.h ****     }
 1283               		.loc 8 12 9 view .LVU267
 1284 0092 672F      		mov r22,r23
 1285 0094 CE01      		movw r24,r28
  12:quantum/rgb_matrix_runners/effect_runner_i.h ****     }
 1286               		.loc 8 12 9 view .LVU268
 1287 0096 0E94 0000 		call rgb_matrix_set_color
 1288               	.LVL115:
 1289               	.L53:
  12:quantum/rgb_matrix_runners/effect_runner_i.h ****     }
 1290               		.loc 8 12 9 view .LVU269
 1291               	.LBE39:
   9:quantum/rgb_matrix_runners/effect_runner_i.h ****         RGB_MATRIX_TEST_LED_FLAGS();
 1292               		.loc 8 9 44 is_stmt 1 discriminator 2 view .LVU270
   9:quantum/rgb_matrix_runners/effect_runner_i.h ****         RGB_MATRIX_TEST_LED_FLAGS();
 1293               		.loc 8 9 44 is_stmt 0 discriminator 2 view .LVU271
 1294 009a 2196      		adiw r28,1
 1295               	.LVL116:
   9:quantum/rgb_matrix_runners/effect_runner_i.h ****         RGB_MATRIX_TEST_LED_FLAGS();
 1296               		.loc 8 9 44 discriminator 2 view .LVU272
 1297 009c 00C0      		rjmp .L51
 1298               	.LBE40:
 1299               		.cfi_endproc
 1300               	.LFE99:
 1302               		.section	.text.effect_runner_sin_cos_i,"ax",@progbits
 1303               	.global	effect_runner_sin_cos_i
 1305               	effect_runner_sin_cos_i:
 1306               	.LVL117:
 1307               	.LFB100:
 1308               		.file 9 "quantum/rgb_matrix_runners/effect_runner_sin_cos_i.h"
   1:quantum/rgb_matrix_runners/effect_runner_sin_cos_i.h **** #pragma once
   2:quantum/rgb_matrix_runners/effect_runner_sin_cos_i.h **** 
   3:quantum/rgb_matrix_runners/effect_runner_sin_cos_i.h **** typedef HSV (*sin_cos_i_f)(HSV hsv, int8_t sin, int8_t cos, uint8_t i, uint8_t time);
   4:quantum/rgb_matrix_runners/effect_runner_sin_cos_i.h **** 
   5:quantum/rgb_matrix_runners/effect_runner_sin_cos_i.h **** bool effect_runner_sin_cos_i(effect_params_t* params, sin_cos_i_f effect_func) {
 1309               		.loc 9 5 80 is_stmt 1 view -0
 1310               		.cfi_startproc
 1311               		.loc 9 5 80 is_stmt 0 view .LVU274
 1312 0000 7F92      		push r7
 1313               	.LCFI45:
 1314               		.cfi_def_cfa_offset 3
 1315               		.cfi_offset 7, -2
 1316 0002 8F92      		push r8
 1317               	.LCFI46:
 1318               		.cfi_def_cfa_offset 4
 1319               		.cfi_offset 8, -3
 1320 0004 9F92      		push r9
 1321               	.LCFI47:
 1322               		.cfi_def_cfa_offset 5
 1323               		.cfi_offset 9, -4
 1324 0006 AF92      		push r10
 1325               	.LCFI48:
 1326               		.cfi_def_cfa_offset 6
 1327               		.cfi_offset 10, -5
 1328 0008 BF92      		push r11
 1329               	.LCFI49:
 1330               		.cfi_def_cfa_offset 7
 1331               		.cfi_offset 11, -6
 1332 000a CF92      		push r12
 1333               	.LCFI50:
 1334               		.cfi_def_cfa_offset 8
 1335               		.cfi_offset 12, -7
 1336 000c DF92      		push r13
 1337               	.LCFI51:
 1338               		.cfi_def_cfa_offset 9
 1339               		.cfi_offset 13, -8
 1340 000e EF92      		push r14
 1341               	.LCFI52:
 1342               		.cfi_def_cfa_offset 10
 1343               		.cfi_offset 14, -9
 1344 0010 FF92      		push r15
 1345               	.LCFI53:
 1346               		.cfi_def_cfa_offset 11
 1347               		.cfi_offset 15, -10
 1348 0012 0F93      		push r16
 1349               	.LCFI54:
 1350               		.cfi_def_cfa_offset 12
 1351               		.cfi_offset 16, -11
 1352 0014 1F93      		push r17
 1353               	.LCFI55:
 1354               		.cfi_def_cfa_offset 13
 1355               		.cfi_offset 17, -12
 1356 0016 CF93      		push r28
 1357               	.LCFI56:
 1358               		.cfi_def_cfa_offset 14
 1359               		.cfi_offset 28, -13
 1360 0018 DF93      		push r29
 1361               	.LCFI57:
 1362               		.cfi_def_cfa_offset 15
 1363               		.cfi_offset 29, -14
 1364               	/* prologue: function */
 1365               	/* frame size = 0 */
 1366               	/* stack size = 13 */
 1367               	.L__stack_usage = 13
 1368 001a 5C01      		movw r10,r24
 1369 001c 6B01      		movw r12,r22
   6:quantum/rgb_matrix_runners/effect_runner_sin_cos_i.h ****     RGB_MATRIX_USE_LIMITS(led_min, led_max);
 1370               		.loc 9 6 5 is_stmt 1 view .LVU275
 1371 001e FC01      		movw r30,r24
 1372 0020 C081      		ld r28,Z
 1373 0022 8BE0      		ldi r24,lo8(11)
 1374               	.LVL118:
 1375               		.loc 9 6 5 is_stmt 0 view .LVU276
 1376 0024 C89F      		mul r28,r24
 1377 0026 C02D      		mov r28,r0
 1378 0028 1124      		clr r1
 1379               	.LVL119:
 1380               		.loc 9 6 5 is_stmt 1 view .LVU277
 1381 002a 1BE0      		ldi r17,lo8(11)
 1382 002c 1C0F      		add r17,r28
 1383               	.LVL120:
 1384               		.loc 9 6 5 view .LVU278
 1385 002e 912E      		mov r9,r17
 1386 0030 1633      		cpi r17,lo8(54)
 1387 0032 00F0      		brlo .L57
 1388 0034 35E3      		ldi r19,lo8(53)
 1389 0036 932E      		mov r9,r19
 1390               	.L57:
 1391               	.LVL121:
 1392               		.loc 9 6 44 view .LVU279
   7:quantum/rgb_matrix_runners/effect_runner_sin_cos_i.h **** 
   8:quantum/rgb_matrix_runners/effect_runner_sin_cos_i.h ****     uint16_t time      = scale16by8(g_rgb_timer, rgb_matrix_config.speed / 4);
 1393               		.loc 9 8 5 view .LVU280
 1394               		.loc 9 8 26 is_stmt 0 view .LVU281
 1395 0038 6091 0000 		lds r22,rgb_matrix_config+4
 1396               	.LVL122:
 1397               		.loc 9 8 26 view .LVU282
 1398 003c 6695      		lsr r22
 1399 003e 6695      		lsr r22
 1400 0040 8091 0000 		lds r24,g_rgb_timer
 1401 0044 9091 0000 		lds r25,g_rgb_timer+1
 1402 0048 0E94 0000 		call scale16by8
 1403               	.LVL123:
 1404 004c F82E      		mov r15,r24
   9:quantum/rgb_matrix_runners/effect_runner_sin_cos_i.h ****     int8_t   cos_value = cos8(time) - 128;
 1405               		.loc 9 9 5 is_stmt 1 view .LVU283
 1406               	.LVL124:
 1407               	.LBB45:
 1408               	.LBI45:
 208:./lib/lib8tion/trig8.h **** 
 209:./lib/lib8tion/trig8.h **** 
 210:./lib/lib8tion/trig8.h **** /// Fast 8-bit approximation of sin(x). This approximation never varies more than
 211:./lib/lib8tion/trig8.h **** /// 2% from the floating point value you'd get by doing
 212:./lib/lib8tion/trig8.h **** ///
 213:./lib/lib8tion/trig8.h **** ///     float s = (sin(x) * 128.0) + 128;
 214:./lib/lib8tion/trig8.h **** ///
 215:./lib/lib8tion/trig8.h **** /// @param theta input angle from 0-255
 216:./lib/lib8tion/trig8.h **** /// @returns sin of theta, value between 0 and 255
 217:./lib/lib8tion/trig8.h **** LIB8STATIC uint8_t sin8_C( uint8_t theta)
 218:./lib/lib8tion/trig8.h **** {
 219:./lib/lib8tion/trig8.h ****     uint8_t offset = theta;
 220:./lib/lib8tion/trig8.h ****     if( theta & 0x40 ) {
 221:./lib/lib8tion/trig8.h ****         offset = (uint8_t)255 - offset;
 222:./lib/lib8tion/trig8.h ****     }
 223:./lib/lib8tion/trig8.h ****     offset &= 0x3F; // 0..63
 224:./lib/lib8tion/trig8.h **** 
 225:./lib/lib8tion/trig8.h ****     uint8_t secoffset  = offset & 0x0F; // 0..15
 226:./lib/lib8tion/trig8.h ****     if( theta & 0x40) secoffset++;
 227:./lib/lib8tion/trig8.h **** 
 228:./lib/lib8tion/trig8.h ****     uint8_t section = offset >> 4; // 0..3
 229:./lib/lib8tion/trig8.h ****     uint8_t s2 = section * 2;
 230:./lib/lib8tion/trig8.h ****     const uint8_t* p = b_m16_interleave;
 231:./lib/lib8tion/trig8.h ****     p += s2;
 232:./lib/lib8tion/trig8.h ****     uint8_t b   =  *p;
 233:./lib/lib8tion/trig8.h ****     p++;
 234:./lib/lib8tion/trig8.h ****     uint8_t m16 =  *p;
 235:./lib/lib8tion/trig8.h **** 
 236:./lib/lib8tion/trig8.h ****     uint8_t mx = (m16 * secoffset) >> 4;
 237:./lib/lib8tion/trig8.h **** 
 238:./lib/lib8tion/trig8.h ****     int8_t y = mx + b;
 239:./lib/lib8tion/trig8.h ****     if( theta & 0x80 ) y = -y;
 240:./lib/lib8tion/trig8.h **** 
 241:./lib/lib8tion/trig8.h ****     y += 128;
 242:./lib/lib8tion/trig8.h **** 
 243:./lib/lib8tion/trig8.h ****     return y;
 244:./lib/lib8tion/trig8.h **** }
 245:./lib/lib8tion/trig8.h **** 
 246:./lib/lib8tion/trig8.h **** /// Fast 8-bit approximation of cos(x). This approximation never varies more than
 247:./lib/lib8tion/trig8.h **** /// 2% from the floating point value you'd get by doing
 248:./lib/lib8tion/trig8.h **** ///
 249:./lib/lib8tion/trig8.h **** ///     float s = (cos(x) * 128.0) + 128;
 250:./lib/lib8tion/trig8.h **** ///
 251:./lib/lib8tion/trig8.h **** /// @param theta input angle from 0-255
 252:./lib/lib8tion/trig8.h **** /// @returns sin of theta, value between 0 and 255
 253:./lib/lib8tion/trig8.h **** LIB8STATIC uint8_t cos8( uint8_t theta)
 1409               		.loc 3 253 20 view .LVU284
 1410               	.LBB46:
 254:./lib/lib8tion/trig8.h **** {
 255:./lib/lib8tion/trig8.h ****     return sin8( theta + 64);
 1411               		.loc 3 255 5 view .LVU285
 1412               		.loc 3 255 12 is_stmt 0 view .LVU286
 1413 004e 80E4      		ldi r24,lo8(64)
 1414 0050 8F0D      		add r24,r15
 1415 0052 0E94 0000 		call sin8_avr
 1416               	.LVL125:
 1417               		.loc 3 255 12 view .LVU287
 1418               	.LBE46:
 1419               	.LBE45:
 1420               		.loc 9 9 37 view .LVU288
 1421 0056 90E8      		ldi r25,lo8(-128)
 1422 0058 892E      		mov r8,r25
 1423 005a 880E      		add r8,r24
 1424               	.LVL126:
  10:quantum/rgb_matrix_runners/effect_runner_sin_cos_i.h ****     int8_t   sin_value = sin8(time) - 128;
 1425               		.loc 9 10 5 is_stmt 1 view .LVU289
 1426               		.loc 9 10 26 is_stmt 0 view .LVU290
 1427 005c 8F2D      		mov r24,r15
 1428 005e 0E94 0000 		call sin8_avr
 1429               	.LVL127:
 1430               		.loc 9 10 37 view .LVU291
 1431 0062 20E8      		ldi r18,lo8(-128)
 1432 0064 722E      		mov r7,r18
 1433 0066 780E      		add r7,r24
 1434               	.LVL128:
  11:quantum/rgb_matrix_runners/effect_runner_sin_cos_i.h ****     for (uint8_t i = led_min; i < led_max; i++) {
 1435               		.loc 9 11 5 is_stmt 1 view .LVU292
 1436               	.LBB47:
 1437               		.loc 9 11 10 view .LVU293
 1438               		.loc 9 11 10 is_stmt 0 view .LVU294
 1439 0068 D0E0      		ldi r29,0
 1440               	.LVL129:
 1441               	.L58:
 1442               		.loc 9 11 31 is_stmt 1 discriminator 1 view .LVU295
 1443               		.loc 9 11 5 is_stmt 0 discriminator 1 view .LVU296
 1444 006a C915      		cp r28,r9
 1445 006c 00F0      		brlo .L61
 1446               	.LBE47:
  12:quantum/rgb_matrix_runners/effect_runner_sin_cos_i.h ****         RGB_MATRIX_TEST_LED_FLAGS();
  13:quantum/rgb_matrix_runners/effect_runner_sin_cos_i.h ****         RGB rgb = rgb_matrix_hsv_to_rgb(effect_func(rgb_matrix_config.hsv, cos_value, sin_value, i,
  14:quantum/rgb_matrix_runners/effect_runner_sin_cos_i.h ****         rgb_matrix_set_color(i, rgb.r, rgb.g, rgb.b);
  15:quantum/rgb_matrix_runners/effect_runner_sin_cos_i.h ****     }
  16:quantum/rgb_matrix_runners/effect_runner_sin_cos_i.h ****     return led_max < DRIVER_LED_TOTAL;
 1447               		.loc 9 16 5 is_stmt 1 view .LVU297
 1448               		.loc 9 16 20 is_stmt 0 view .LVU298
 1449 006e 81E0      		ldi r24,lo8(1)
 1450 0070 1533      		cpi r17,lo8(53)
 1451 0072 00F0      		brlo .L62
 1452 0074 80E0      		ldi r24,0
 1453               	.L62:
 1454               	/* epilogue start */
  17:quantum/rgb_matrix_runners/effect_runner_sin_cos_i.h **** }
 1455               		.loc 9 17 1 view .LVU299
 1456 0076 DF91      		pop r29
 1457 0078 CF91      		pop r28
 1458               	.LVL130:
 1459               		.loc 9 17 1 view .LVU300
 1460 007a 1F91      		pop r17
 1461 007c 0F91      		pop r16
 1462 007e FF90      		pop r15
 1463 0080 EF90      		pop r14
 1464 0082 DF90      		pop r13
 1465 0084 CF90      		pop r12
 1466               	.LVL131:
 1467               		.loc 9 17 1 view .LVU301
 1468 0086 BF90      		pop r11
 1469 0088 AF90      		pop r10
 1470               	.LVL132:
 1471               		.loc 9 17 1 view .LVU302
 1472 008a 9F90      		pop r9
 1473               	.LVL133:
 1474               		.loc 9 17 1 view .LVU303
 1475 008c 8F90      		pop r8
 1476               	.LVL134:
 1477               		.loc 9 17 1 view .LVU304
 1478 008e 7F90      		pop r7
 1479               	.LVL135:
 1480               		.loc 9 17 1 view .LVU305
 1481 0090 0895      		ret
 1482               	.LVL136:
 1483               	.L61:
 1484               	.LBB49:
 1485               	.LBB48:
  12:quantum/rgb_matrix_runners/effect_runner_sin_cos_i.h ****         RGB_MATRIX_TEST_LED_FLAGS();
 1486               		.loc 9 12 9 is_stmt 1 view .LVU306
 1487 0092 FE01      		movw r30,r28
 1488 0094 E050      		subi r30,lo8(-(g_led_config+154))
 1489 0096 F040      		sbci r31,hi8(-(g_led_config+154))
 1490 0098 8081      		ld r24,Z
 1491 009a F501      		movw r30,r10
 1492 009c 9181      		ldd r25,Z+1
 1493 009e 8923      		and r24,r25
 1494 00a0 01F0      		breq .L60
  13:quantum/rgb_matrix_runners/effect_runner_sin_cos_i.h ****         rgb_matrix_set_color(i, rgb.r, rgb.g, rgb.b);
 1495               		.loc 9 13 9 view .LVU307
  13:quantum/rgb_matrix_runners/effect_runner_sin_cos_i.h ****         rgb_matrix_set_color(i, rgb.r, rgb.g, rgb.b);
 1496               		.loc 9 13 19 is_stmt 0 view .LVU308
 1497 00a2 6091 0000 		lds r22,rgb_matrix_config+1
 1498 00a6 7091 0000 		lds r23,rgb_matrix_config+1+1
 1499 00aa 8091 0000 		lds r24,rgb_matrix_config+1+2
 1500 00ae EF2C      		mov r14,r15
 1501 00b0 0C2F      		mov r16,r28
 1502 00b2 272D      		mov r18,r7
 1503 00b4 482D      		mov r20,r8
 1504 00b6 F601      		movw r30,r12
 1505 00b8 0995      		icall
 1506               	.LVL137:
 1507 00ba 0E94 0000 		call rgb_matrix_hsv_to_rgb
 1508               	.LVL138:
 1509 00be 462F      		mov r20,r22
 1510               	.LVL139:
  14:quantum/rgb_matrix_runners/effect_runner_sin_cos_i.h ****     }
 1511               		.loc 9 14 9 is_stmt 1 view .LVU309
  14:quantum/rgb_matrix_runners/effect_runner_sin_cos_i.h ****     }
 1512               		.loc 9 14 9 is_stmt 0 view .LVU310
 1513 00c0 282F      		mov r18,r24
  14:quantum/rgb_matrix_runners/effect_runner_sin_cos_i.h ****     }
 1514               		.loc 9 14 9 view .LVU311
 1515 00c2 672F      		mov r22,r23
 1516 00c4 CE01      		movw r24,r28
  14:quantum/rgb_matrix_runners/effect_runner_sin_cos_i.h ****     }
 1517               		.loc 9 14 9 view .LVU312
 1518 00c6 0E94 0000 		call rgb_matrix_set_color
 1519               	.LVL140:
 1520               	.L60:
  14:quantum/rgb_matrix_runners/effect_runner_sin_cos_i.h ****     }
 1521               		.loc 9 14 9 view .LVU313
 1522               	.LBE48:
  11:quantum/rgb_matrix_runners/effect_runner_sin_cos_i.h ****         RGB_MATRIX_TEST_LED_FLAGS();
 1523               		.loc 9 11 44 is_stmt 1 discriminator 2 view .LVU314
  11:quantum/rgb_matrix_runners/effect_runner_sin_cos_i.h ****         RGB_MATRIX_TEST_LED_FLAGS();
 1524               		.loc 9 11 44 is_stmt 0 discriminator 2 view .LVU315
 1525 00ca 2196      		adiw r28,1
 1526               	.LVL141:
  11:quantum/rgb_matrix_runners/effect_runner_sin_cos_i.h ****         RGB_MATRIX_TEST_LED_FLAGS();
 1527               		.loc 9 11 44 discriminator 2 view .LVU316
 1528 00cc 00C0      		rjmp .L58
 1529               	.LBE49:
 1530               		.cfi_endproc
 1531               	.LFE100:
 1533               		.section	.text.effect_runner_reactive,"ax",@progbits
 1534               	.global	effect_runner_reactive
 1536               	effect_runner_reactive:
 1537               	.LVL142:
 1538               	.LFB101:
 1539               		.file 10 "quantum/rgb_matrix_runners/effect_runner_reactive.h"
   1:quantum/rgb_matrix_runners/effect_runner_reactive.h **** #pragma once
   2:quantum/rgb_matrix_runners/effect_runner_reactive.h **** 
   3:quantum/rgb_matrix_runners/effect_runner_reactive.h **** #ifdef RGB_MATRIX_KEYREACTIVE_ENABLED
   4:quantum/rgb_matrix_runners/effect_runner_reactive.h **** 
   5:quantum/rgb_matrix_runners/effect_runner_reactive.h **** typedef HSV (*reactive_f)(HSV hsv, uint16_t offset);
   6:quantum/rgb_matrix_runners/effect_runner_reactive.h **** 
   7:quantum/rgb_matrix_runners/effect_runner_reactive.h **** bool effect_runner_reactive(effect_params_t* params, reactive_f effect_func) {
 1540               		.loc 10 7 78 is_stmt 1 view -0
 1541               		.cfi_startproc
 1542               		.loc 10 7 78 is_stmt 0 view .LVU318
 1543 0000 AF92      		push r10
 1544               	.LCFI58:
 1545               		.cfi_def_cfa_offset 3
 1546               		.cfi_offset 10, -2
 1547 0002 BF92      		push r11
 1548               	.LCFI59:
 1549               		.cfi_def_cfa_offset 4
 1550               		.cfi_offset 11, -3
 1551 0004 CF92      		push r12
 1552               	.LCFI60:
 1553               		.cfi_def_cfa_offset 5
 1554               		.cfi_offset 12, -4
 1555 0006 DF92      		push r13
 1556               	.LCFI61:
 1557               		.cfi_def_cfa_offset 6
 1558               		.cfi_offset 13, -5
 1559 0008 EF92      		push r14
 1560               	.LCFI62:
 1561               		.cfi_def_cfa_offset 7
 1562               		.cfi_offset 14, -6
 1563 000a FF92      		push r15
 1564               	.LCFI63:
 1565               		.cfi_def_cfa_offset 8
 1566               		.cfi_offset 15, -7
 1567 000c 0F93      		push r16
 1568               	.LCFI64:
 1569               		.cfi_def_cfa_offset 9
 1570               		.cfi_offset 16, -8
 1571 000e 1F93      		push r17
 1572               	.LCFI65:
 1573               		.cfi_def_cfa_offset 10
 1574               		.cfi_offset 17, -9
 1575 0010 CF93      		push r28
 1576               	.LCFI66:
 1577               		.cfi_def_cfa_offset 11
 1578               		.cfi_offset 28, -10
 1579 0012 DF93      		push r29
 1580               	.LCFI67:
 1581               		.cfi_def_cfa_offset 12
 1582               		.cfi_offset 29, -11
 1583               	/* prologue: function */
 1584               	/* frame size = 0 */
 1585               	/* stack size = 10 */
 1586               	.L__stack_usage = 10
 1587 0014 7C01      		movw r14,r24
 1588 0016 6B01      		movw r12,r22
   8:quantum/rgb_matrix_runners/effect_runner_reactive.h ****     RGB_MATRIX_USE_LIMITS(led_min, led_max);
 1589               		.loc 10 8 5 is_stmt 1 view .LVU319
 1590 0018 FC01      		movw r30,r24
 1591 001a C081      		ld r28,Z
 1592 001c 8BE0      		ldi r24,lo8(11)
 1593               	.LVL143:
 1594               		.loc 10 8 5 is_stmt 0 view .LVU320
 1595 001e C89F      		mul r28,r24
 1596 0020 C02D      		mov r28,r0
 1597 0022 1124      		clr r1
 1598               	.LVL144:
 1599               		.loc 10 8 5 is_stmt 1 view .LVU321
 1600 0024 2BE0      		ldi r18,lo8(11)
 1601 0026 B22E      		mov r11,r18
 1602 0028 BC0E      		add r11,r28
 1603               	.LVL145:
 1604               		.loc 10 8 5 view .LVU322
 1605 002a AB2C      		mov r10,r11
 1606 002c F5E3      		ldi r31,lo8(53)
 1607 002e FB15      		cp r31,r11
 1608 0030 00F4      		brsh .L64
 1609 0032 95E3      		ldi r25,lo8(53)
 1610 0034 A92E      		mov r10,r25
 1611               	.L64:
 1612               	.LVL146:
 1613               		.loc 10 8 44 view .LVU323
   9:quantum/rgb_matrix_runners/effect_runner_reactive.h **** 
  10:quantum/rgb_matrix_runners/effect_runner_reactive.h ****     uint16_t max_tick = 65535 / rgb_matrix_config.speed;
 1614               		.loc 10 10 5 view .LVU324
 1615               		.loc 10 10 50 is_stmt 0 view .LVU325
 1616 0036 2091 0000 		lds r18,rgb_matrix_config+4
 1617 003a 30E0      		ldi r19,0
 1618 003c 50E0      		ldi r21,0
 1619 003e 40E0      		ldi r20,0
 1620               		.loc 10 10 31 view .LVU326
 1621 0040 6FEF      		ldi r22,lo8(-1)
 1622 0042 7FEF      		ldi r23,lo8(-1)
 1623 0044 80E0      		ldi r24,0
 1624 0046 90E0      		ldi r25,0
 1625               	.LVL147:
 1626               		.loc 10 10 31 view .LVU327
 1627 0048 0E94 0000 		call __divmodsi4
 1628               		.loc 10 10 14 view .LVU328
 1629 004c 8901      		movw r16,r18
 1630               	.LVL148:
  11:quantum/rgb_matrix_runners/effect_runner_reactive.h ****     for (uint8_t i = led_min; i < led_max; i++) {
 1631               		.loc 10 11 5 is_stmt 1 view .LVU329
 1632               	.LBB50:
 1633               		.loc 10 11 10 view .LVU330
 1634               		.loc 10 11 10 is_stmt 0 view .LVU331
 1635 004e D0E0      		ldi r29,0
 1636               	.LVL149:
 1637               	.L65:
 1638               		.loc 10 11 31 is_stmt 1 discriminator 1 view .LVU332
 1639 0050 2C2F      		mov r18,r28
 1640               		.loc 10 11 5 is_stmt 0 discriminator 1 view .LVU333
 1641 0052 CA15      		cp r28,r10
 1642 0054 00F0      		brlo .L72
 1643               	.LBE50:
  12:quantum/rgb_matrix_runners/effect_runner_reactive.h ****         RGB_MATRIX_TEST_LED_FLAGS();
  13:quantum/rgb_matrix_runners/effect_runner_reactive.h ****         uint16_t tick = max_tick;
  14:quantum/rgb_matrix_runners/effect_runner_reactive.h ****         // Reverse search to find most recent key hit
  15:quantum/rgb_matrix_runners/effect_runner_reactive.h ****         for (int8_t j = g_last_hit_tracker.count - 1; j >= 0; j--) {
  16:quantum/rgb_matrix_runners/effect_runner_reactive.h ****             if (g_last_hit_tracker.index[j] == i && g_last_hit_tracker.tick[j] < tick) {
  17:quantum/rgb_matrix_runners/effect_runner_reactive.h ****                 tick = g_last_hit_tracker.tick[j];
  18:quantum/rgb_matrix_runners/effect_runner_reactive.h ****                 break;
  19:quantum/rgb_matrix_runners/effect_runner_reactive.h ****             }
  20:quantum/rgb_matrix_runners/effect_runner_reactive.h ****         }
  21:quantum/rgb_matrix_runners/effect_runner_reactive.h **** 
  22:quantum/rgb_matrix_runners/effect_runner_reactive.h ****         uint16_t offset = scale16by8(tick, rgb_matrix_config.speed);
  23:quantum/rgb_matrix_runners/effect_runner_reactive.h ****         RGB      rgb    = rgb_matrix_hsv_to_rgb(effect_func(rgb_matrix_config.hsv, offset));
  24:quantum/rgb_matrix_runners/effect_runner_reactive.h ****         rgb_matrix_set_color(i, rgb.r, rgb.g, rgb.b);
  25:quantum/rgb_matrix_runners/effect_runner_reactive.h ****     }
  26:quantum/rgb_matrix_runners/effect_runner_reactive.h ****     return led_max < DRIVER_LED_TOTAL;
 1644               		.loc 10 26 5 is_stmt 1 view .LVU334
 1645               		.loc 10 26 20 is_stmt 0 view .LVU335
 1646 0056 81E0      		ldi r24,lo8(1)
 1647 0058 F4E3      		ldi r31,lo8(52)
 1648 005a FB15      		cp r31,r11
 1649 005c 00F4      		brsh .L73
 1650 005e 80E0      		ldi r24,0
 1651               	.L73:
 1652               	/* epilogue start */
  27:quantum/rgb_matrix_runners/effect_runner_reactive.h **** }
 1653               		.loc 10 27 1 view .LVU336
 1654 0060 DF91      		pop r29
 1655 0062 CF91      		pop r28
 1656               	.LVL150:
 1657               		.loc 10 27 1 view .LVU337
 1658 0064 1F91      		pop r17
 1659 0066 0F91      		pop r16
 1660 0068 FF90      		pop r15
 1661 006a EF90      		pop r14
 1662               	.LVL151:
 1663               		.loc 10 27 1 view .LVU338
 1664 006c DF90      		pop r13
 1665 006e CF90      		pop r12
 1666               	.LVL152:
 1667               		.loc 10 27 1 view .LVU339
 1668 0070 BF90      		pop r11
 1669 0072 AF90      		pop r10
 1670               	.LVL153:
 1671               		.loc 10 27 1 view .LVU340
 1672 0074 0895      		ret
 1673               	.LVL154:
 1674               	.L72:
 1675               	.LBB56:
 1676               	.LBB51:
  12:quantum/rgb_matrix_runners/effect_runner_reactive.h ****         RGB_MATRIX_TEST_LED_FLAGS();
 1677               		.loc 10 12 9 is_stmt 1 view .LVU341
 1678 0076 FE01      		movw r30,r28
 1679 0078 E050      		subi r30,lo8(-(g_led_config+154))
 1680 007a F040      		sbci r31,hi8(-(g_led_config+154))
 1681 007c 8081      		ld r24,Z
 1682 007e F701      		movw r30,r14
 1683 0080 9181      		ldd r25,Z+1
 1684 0082 8923      		and r24,r25
 1685 0084 01F0      		breq .L67
  13:quantum/rgb_matrix_runners/effect_runner_reactive.h ****         // Reverse search to find most recent key hit
 1686               		.loc 10 13 9 view .LVU342
 1687               	.LVL155:
  15:quantum/rgb_matrix_runners/effect_runner_reactive.h ****             if (g_last_hit_tracker.index[j] == i && g_last_hit_tracker.tick[j] < tick) {
 1688               		.loc 10 15 9 view .LVU343
 1689               	.LBB52:
  15:quantum/rgb_matrix_runners/effect_runner_reactive.h ****             if (g_last_hit_tracker.index[j] == i && g_last_hit_tracker.tick[j] < tick) {
 1690               		.loc 10 15 14 view .LVU344
  15:quantum/rgb_matrix_runners/effect_runner_reactive.h ****             if (g_last_hit_tracker.index[j] == i && g_last_hit_tracker.tick[j] < tick) {
 1691               		.loc 10 15 50 is_stmt 0 view .LVU345
 1692 0086 4091 0000 		lds r20,g_last_hit_tracker
 1693 008a 4150      		subi r20,lo8(-(-1))
 1694               	.LVL156:
  15:quantum/rgb_matrix_runners/effect_runner_reactive.h ****             if (g_last_hit_tracker.index[j] == i && g_last_hit_tracker.tick[j] < tick) {
 1695               		.loc 10 15 50 view .LVU346
 1696 008c 042E      		mov __tmp_reg__,r20
 1697 008e 000C      		lsl r0
 1698 0090 550B      		sbc r21,r21
 1699               	.LVL157:
 1700               	.L68:
  15:quantum/rgb_matrix_runners/effect_runner_reactive.h ****             if (g_last_hit_tracker.index[j] == i && g_last_hit_tracker.tick[j] < tick) {
 1701               		.loc 10 15 55 is_stmt 1 discriminator 1 view .LVU347
  15:quantum/rgb_matrix_runners/effect_runner_reactive.h ****             if (g_last_hit_tracker.index[j] == i && g_last_hit_tracker.tick[j] < tick) {
 1702               		.loc 10 15 9 is_stmt 0 discriminator 1 view .LVU348
 1703 0092 47FF      		sbrs r20,7
 1704 0094 00C0      		rjmp .L71
 1705               	.LBE52:
 1706               	.LBE51:
 1707               	.LBE56:
  10:quantum/rgb_matrix_runners/effect_runner_reactive.h ****     for (uint8_t i = led_min; i < led_max; i++) {
 1708               		.loc 10 10 14 view .LVU349
 1709 0096 C801      		movw r24,r16
 1710               	.L70:
 1711               	.LVL158:
 1712               	.LBB57:
 1713               	.LBB54:
  22:quantum/rgb_matrix_runners/effect_runner_reactive.h ****         RGB      rgb    = rgb_matrix_hsv_to_rgb(effect_func(rgb_matrix_config.hsv, offset));
 1714               		.loc 10 22 9 is_stmt 1 view .LVU350
  22:quantum/rgb_matrix_runners/effect_runner_reactive.h ****         RGB      rgb    = rgb_matrix_hsv_to_rgb(effect_func(rgb_matrix_config.hsv, offset));
 1715               		.loc 10 22 27 is_stmt 0 view .LVU351
 1716 0098 6091 0000 		lds r22,rgb_matrix_config+4
 1717 009c 0E94 0000 		call scale16by8
 1718               	.LVL159:
  22:quantum/rgb_matrix_runners/effect_runner_reactive.h ****         RGB      rgb    = rgb_matrix_hsv_to_rgb(effect_func(rgb_matrix_config.hsv, offset));
 1719               		.loc 10 22 27 view .LVU352
 1720 00a0 AC01      		movw r20,r24
 1721               	.LVL160:
  23:quantum/rgb_matrix_runners/effect_runner_reactive.h ****         rgb_matrix_set_color(i, rgb.r, rgb.g, rgb.b);
 1722               		.loc 10 23 9 is_stmt 1 view .LVU353
  23:quantum/rgb_matrix_runners/effect_runner_reactive.h ****         rgb_matrix_set_color(i, rgb.r, rgb.g, rgb.b);
 1723               		.loc 10 23 27 is_stmt 0 view .LVU354
 1724 00a2 6091 0000 		lds r22,rgb_matrix_config+1
 1725 00a6 7091 0000 		lds r23,rgb_matrix_config+1+1
 1726 00aa 8091 0000 		lds r24,rgb_matrix_config+1+2
 1727 00ae F601      		movw r30,r12
 1728 00b0 0995      		icall
 1729               	.LVL161:
  23:quantum/rgb_matrix_runners/effect_runner_reactive.h ****         rgb_matrix_set_color(i, rgb.r, rgb.g, rgb.b);
 1730               		.loc 10 23 27 view .LVU355
 1731 00b2 0E94 0000 		call rgb_matrix_hsv_to_rgb
 1732               	.LVL162:
 1733 00b6 462F      		mov r20,r22
 1734               	.LVL163:
  24:quantum/rgb_matrix_runners/effect_runner_reactive.h ****     }
 1735               		.loc 10 24 9 is_stmt 1 view .LVU356
  24:quantum/rgb_matrix_runners/effect_runner_reactive.h ****     }
 1736               		.loc 10 24 9 is_stmt 0 view .LVU357
 1737 00b8 282F      		mov r18,r24
  24:quantum/rgb_matrix_runners/effect_runner_reactive.h ****     }
 1738               		.loc 10 24 9 view .LVU358
 1739 00ba 672F      		mov r22,r23
 1740 00bc CE01      		movw r24,r28
  24:quantum/rgb_matrix_runners/effect_runner_reactive.h ****     }
 1741               		.loc 10 24 9 view .LVU359
 1742 00be 0E94 0000 		call rgb_matrix_set_color
 1743               	.LVL164:
 1744               	.L67:
  24:quantum/rgb_matrix_runners/effect_runner_reactive.h ****     }
 1745               		.loc 10 24 9 view .LVU360
 1746               	.LBE54:
  11:quantum/rgb_matrix_runners/effect_runner_reactive.h ****         RGB_MATRIX_TEST_LED_FLAGS();
 1747               		.loc 10 11 44 is_stmt 1 discriminator 2 view .LVU361
  11:quantum/rgb_matrix_runners/effect_runner_reactive.h ****         RGB_MATRIX_TEST_LED_FLAGS();
 1748               		.loc 10 11 44 is_stmt 0 discriminator 2 view .LVU362
 1749 00c2 2196      		adiw r28,1
 1750               	.LVL165:
  11:quantum/rgb_matrix_runners/effect_runner_reactive.h ****         RGB_MATRIX_TEST_LED_FLAGS();
 1751               		.loc 10 11 44 discriminator 2 view .LVU363
 1752 00c4 00C0      		rjmp .L65
 1753               	.LVL166:
 1754               	.L71:
 1755               	.LBB55:
 1756               	.LBB53:
  16:quantum/rgb_matrix_runners/effect_runner_reactive.h ****                 tick = g_last_hit_tracker.tick[j];
 1757               		.loc 10 16 13 is_stmt 1 view .LVU364
  16:quantum/rgb_matrix_runners/effect_runner_reactive.h ****                 tick = g_last_hit_tracker.tick[j];
 1758               		.loc 10 16 41 is_stmt 0 view .LVU365
 1759 00c6 FA01      		movw r30,r20
 1760 00c8 E050      		subi r30,lo8(-(g_last_hit_tracker))
 1761 00ca F040      		sbci r31,hi8(-(g_last_hit_tracker))
  16:quantum/rgb_matrix_runners/effect_runner_reactive.h ****                 tick = g_last_hit_tracker.tick[j];
 1762               		.loc 10 16 16 view .LVU366
 1763 00cc 8189      		ldd r24,Z+17
 1764 00ce 8213      		cpse r24,r18
 1765 00d0 00C0      		rjmp .L69
  16:quantum/rgb_matrix_runners/effect_runner_reactive.h ****                 tick = g_last_hit_tracker.tick[j];
 1766               		.loc 10 16 76 discriminator 1 view .LVU367
 1767 00d2 FA01      		movw r30,r20
 1768 00d4 EE0F      		lsl r30
 1769 00d6 FF1F      		rol r31
 1770 00d8 E050      		subi r30,lo8(-(g_last_hit_tracker))
 1771 00da F040      		sbci r31,hi8(-(g_last_hit_tracker))
 1772 00dc 818D      		ldd r24,Z+25
 1773 00de 928D      		ldd r25,Z+26
  16:quantum/rgb_matrix_runners/effect_runner_reactive.h ****                 tick = g_last_hit_tracker.tick[j];
 1774               		.loc 10 16 50 discriminator 1 view .LVU368
 1775 00e0 8017      		cp r24,r16
 1776 00e2 9107      		cpc r25,r17
 1777 00e4 00F0      		brlo .L70
 1778               	.L69:
  15:quantum/rgb_matrix_runners/effect_runner_reactive.h ****             if (g_last_hit_tracker.index[j] == i && g_last_hit_tracker.tick[j] < tick) {
 1779               		.loc 10 15 63 is_stmt 1 discriminator 2 view .LVU369
 1780               	.LVL167:
  15:quantum/rgb_matrix_runners/effect_runner_reactive.h ****             if (g_last_hit_tracker.index[j] == i && g_last_hit_tracker.tick[j] < tick) {
 1781               		.loc 10 15 63 is_stmt 0 discriminator 2 view .LVU370
 1782 00e6 4150      		subi r20,1
 1783 00e8 5109      		sbc r21,__zero_reg__
 1784               	.LVL168:
  15:quantum/rgb_matrix_runners/effect_runner_reactive.h ****             if (g_last_hit_tracker.index[j] == i && g_last_hit_tracker.tick[j] < tick) {
 1785               		.loc 10 15 63 discriminator 2 view .LVU371
 1786 00ea 00C0      		rjmp .L68
 1787               	.LBE53:
 1788               	.LBE55:
 1789               	.LBE57:
 1790               		.cfi_endproc
 1791               	.LFE101:
 1793               		.section	.text.effect_runner_reactive_splash,"ax",@progbits
 1794               	.global	effect_runner_reactive_splash
 1796               	effect_runner_reactive_splash:
 1797               	.LVL169:
 1798               	.LFB102:
 1799               		.file 11 "quantum/rgb_matrix_runners/effect_runner_reactive_splash.h"
   1:quantum/rgb_matrix_runners/effect_runner_reactive_splash.h **** #pragma once
   2:quantum/rgb_matrix_runners/effect_runner_reactive_splash.h **** 
   3:quantum/rgb_matrix_runners/effect_runner_reactive_splash.h **** #ifdef RGB_MATRIX_KEYREACTIVE_ENABLED
   4:quantum/rgb_matrix_runners/effect_runner_reactive_splash.h **** 
   5:quantum/rgb_matrix_runners/effect_runner_reactive_splash.h **** typedef HSV (*reactive_splash_f)(HSV hsv, int16_t dx, int16_t dy, uint8_t dist, uint16_t tick);
   6:quantum/rgb_matrix_runners/effect_runner_reactive_splash.h **** 
   7:quantum/rgb_matrix_runners/effect_runner_reactive_splash.h **** bool effect_runner_reactive_splash(uint8_t start, effect_params_t* params, reactive_splash_f effect
 1800               		.loc 11 7 107 is_stmt 1 view -0
 1801               		.cfi_startproc
 1802               		.loc 11 7 107 is_stmt 0 view .LVU373
 1803 0000 2F92      		push r2
 1804               	.LCFI68:
 1805               		.cfi_def_cfa_offset 3
 1806               		.cfi_offset 2, -2
 1807 0002 3F92      		push r3
 1808               	.LCFI69:
 1809               		.cfi_def_cfa_offset 4
 1810               		.cfi_offset 3, -3
 1811 0004 4F92      		push r4
 1812               	.LCFI70:
 1813               		.cfi_def_cfa_offset 5
 1814               		.cfi_offset 4, -4
 1815 0006 5F92      		push r5
 1816               	.LCFI71:
 1817               		.cfi_def_cfa_offset 6
 1818               		.cfi_offset 5, -5
 1819 0008 6F92      		push r6
 1820               	.LCFI72:
 1821               		.cfi_def_cfa_offset 7
 1822               		.cfi_offset 6, -6
 1823 000a 7F92      		push r7
 1824               	.LCFI73:
 1825               		.cfi_def_cfa_offset 8
 1826               		.cfi_offset 7, -7
 1827 000c 8F92      		push r8
 1828               	.LCFI74:
 1829               		.cfi_def_cfa_offset 9
 1830               		.cfi_offset 8, -8
 1831 000e 9F92      		push r9
 1832               	.LCFI75:
 1833               		.cfi_def_cfa_offset 10
 1834               		.cfi_offset 9, -9
 1835 0010 AF92      		push r10
 1836               	.LCFI76:
 1837               		.cfi_def_cfa_offset 11
 1838               		.cfi_offset 10, -10
 1839 0012 BF92      		push r11
 1840               	.LCFI77:
 1841               		.cfi_def_cfa_offset 12
 1842               		.cfi_offset 11, -11
 1843 0014 CF92      		push r12
 1844               	.LCFI78:
 1845               		.cfi_def_cfa_offset 13
 1846               		.cfi_offset 12, -12
 1847 0016 DF92      		push r13
 1848               	.LCFI79:
 1849               		.cfi_def_cfa_offset 14
 1850               		.cfi_offset 13, -13
 1851 0018 EF92      		push r14
 1852               	.LCFI80:
 1853               		.cfi_def_cfa_offset 15
 1854               		.cfi_offset 14, -14
 1855 001a FF92      		push r15
 1856               	.LCFI81:
 1857               		.cfi_def_cfa_offset 16
 1858               		.cfi_offset 15, -15
 1859 001c 0F93      		push r16
 1860               	.LCFI82:
 1861               		.cfi_def_cfa_offset 17
 1862               		.cfi_offset 16, -16
 1863 001e 1F93      		push r17
 1864               	.LCFI83:
 1865               		.cfi_def_cfa_offset 18
 1866               		.cfi_offset 17, -17
 1867 0020 CF93      		push r28
 1868               	.LCFI84:
 1869               		.cfi_def_cfa_offset 19
 1870               		.cfi_offset 28, -18
 1871 0022 DF93      		push r29
 1872               	.LCFI85:
 1873               		.cfi_def_cfa_offset 20
 1874               		.cfi_offset 29, -19
 1875 0024 CDB7      		in r28,__SP_L__
 1876 0026 DEB7      		in r29,__SP_H__
 1877               	.LCFI86:
 1878               		.cfi_def_cfa_register 28
 1879 0028 2B97      		sbiw r28,11
 1880               	.LCFI87:
 1881               		.cfi_def_cfa_offset 31
 1882 002a 0FB6      		in __tmp_reg__,__SREG__
 1883 002c F894      		cli
 1884 002e DEBF      		out __SP_H__,r29
 1885 0030 0FBE      		out __SREG__,__tmp_reg__
 1886 0032 CDBF      		out __SP_L__,r28
 1887               	/* prologue: function */
 1888               	/* frame size = 11 */
 1889               	/* stack size = 29 */
 1890               	.L__stack_usage = 29
 1891 0034 8C83      		std Y+4,r24
 1892 0036 2B01      		movw r4,r22
 1893 0038 5F83      		std Y+7,r21
 1894 003a 4E83      		std Y+6,r20
   8:quantum/rgb_matrix_runners/effect_runner_reactive_splash.h ****     RGB_MATRIX_USE_LIMITS(led_min, led_max);
 1895               		.loc 11 8 5 is_stmt 1 view .LVU374
 1896 003c FB01      		movw r30,r22
 1897 003e F081      		ld r31,Z
 1898 0040 8BE0      		ldi r24,lo8(11)
 1899               	.LVL170:
 1900               		.loc 11 8 5 is_stmt 0 view .LVU375
 1901 0042 F89F      		mul r31,r24
 1902 0044 802D      		mov r24,r0
 1903 0046 1124      		clr r1
 1904 0048 8983      		std Y+1,r24
 1905               	.LVL171:
 1906               		.loc 11 8 5 is_stmt 1 view .LVU376
 1907 004a 855F      		subi r24,lo8(-(11))
 1908               	.LVL172:
 1909               		.loc 11 8 5 is_stmt 0 view .LVU377
 1910 004c 8A83      		std Y+2,r24
 1911               	.LVL173:
 1912               		.loc 11 8 5 is_stmt 1 view .LVU378
 1913 004e 8B83      		std Y+3,r24
 1914 0050 8633      		cpi r24,lo8(54)
 1915 0052 00F0      		brlo .L75
 1916 0054 25E3      		ldi r18,lo8(53)
 1917 0056 2B83      		std Y+3,r18
 1918               	.L75:
 1919               	.LVL174:
 1920               		.loc 11 8 44 view .LVU379
   9:quantum/rgb_matrix_runners/effect_runner_reactive_splash.h **** 
  10:quantum/rgb_matrix_runners/effect_runner_reactive_splash.h ****     uint8_t count = g_last_hit_tracker.count;
 1921               		.loc 11 10 5 view .LVU380
 1922               		.loc 11 10 13 is_stmt 0 view .LVU381
 1923 0058 3091 0000 		lds r19,g_last_hit_tracker
 1924 005c 3D83      		std Y+5,r19
 1925               	.LVL175:
  11:quantum/rgb_matrix_runners/effect_runner_reactive_splash.h ****     for (uint8_t i = led_min; i < led_max; i++) {
 1926               		.loc 11 11 5 is_stmt 1 view .LVU382
 1927               	.LBB58:
 1928               		.loc 11 11 10 view .LVU383
 1929               		.loc 11 11 10 is_stmt 0 view .LVU384
 1930 005e 9981      		ldd r25,Y+1
 1931 0060 892F      		mov r24,r25
 1932 0062 90E0      		ldi r25,0
 1933 0064 9B87      		std Y+11,r25
 1934 0066 8A87      		std Y+10,r24
 1935 0068 880F      		lsl r24
 1936 006a 991F      		rol r25
 1937 006c FC01      		movw r30,r24
 1938 006e E050      		subi r30,lo8(-(g_led_config))
 1939 0070 F040      		sbci r31,hi8(-(g_led_config))
 1940 0072 6F01      		movw r12,r30
 1941 0074 FC81      		ldd r31,Y+4
 1942 0076 8F2F      		mov r24,r31
 1943 0078 90E0      		ldi r25,0
 1944 007a 9C01      		movw r18,r24
 1945 007c 2F5F      		subi r18,-1
 1946 007e 3F4F      		sbci r19,-1
 1947 0080 3987      		std Y+9,r19
 1948 0082 2887      		std Y+8,r18
 1949               	.LVL176:
 1950               	.L76:
 1951               		.loc 11 11 31 is_stmt 1 discriminator 1 view .LVU385
 1952               		.loc 11 11 5 is_stmt 0 discriminator 1 view .LVU386
 1953 0084 EB81      		ldd r30,Y+3
 1954 0086 FA85      		ldd r31,Y+10
 1955 0088 FE17      		cp r31,r30
 1956 008a 00F0      		brlo .L81
 1957               	.LBE58:
  12:quantum/rgb_matrix_runners/effect_runner_reactive_splash.h ****         RGB_MATRIX_TEST_LED_FLAGS();
  13:quantum/rgb_matrix_runners/effect_runner_reactive_splash.h ****         HSV hsv = rgb_matrix_config.hsv;
  14:quantum/rgb_matrix_runners/effect_runner_reactive_splash.h ****         hsv.v   = 0;
  15:quantum/rgb_matrix_runners/effect_runner_reactive_splash.h ****         for (uint8_t j = start; j < count; j++) {
  16:quantum/rgb_matrix_runners/effect_runner_reactive_splash.h ****             int16_t  dx   = g_led_config.point[i].x - g_last_hit_tracker.x[j];
  17:quantum/rgb_matrix_runners/effect_runner_reactive_splash.h ****             int16_t  dy   = g_led_config.point[i].y - g_last_hit_tracker.y[j];
  18:quantum/rgb_matrix_runners/effect_runner_reactive_splash.h ****             uint8_t  dist = sqrt16(dx * dx + dy * dy);
  19:quantum/rgb_matrix_runners/effect_runner_reactive_splash.h ****             uint16_t tick = scale16by8(g_last_hit_tracker.tick[j], rgb_matrix_config.speed);
  20:quantum/rgb_matrix_runners/effect_runner_reactive_splash.h ****             hsv           = effect_func(hsv, dx, dy, dist, tick);
  21:quantum/rgb_matrix_runners/effect_runner_reactive_splash.h ****         }
  22:quantum/rgb_matrix_runners/effect_runner_reactive_splash.h ****         hsv.v   = scale8(hsv.v, rgb_matrix_config.hsv.v);
  23:quantum/rgb_matrix_runners/effect_runner_reactive_splash.h ****         RGB rgb = rgb_matrix_hsv_to_rgb(hsv);
  24:quantum/rgb_matrix_runners/effect_runner_reactive_splash.h ****         rgb_matrix_set_color(i, rgb.r, rgb.g, rgb.b);
  25:quantum/rgb_matrix_runners/effect_runner_reactive_splash.h ****     }
  26:quantum/rgb_matrix_runners/effect_runner_reactive_splash.h ****     return led_max < DRIVER_LED_TOTAL;
 1958               		.loc 11 26 5 is_stmt 1 view .LVU387
 1959               		.loc 11 26 20 is_stmt 0 view .LVU388
 1960 008c 81E0      		ldi r24,lo8(1)
 1961 008e 2A81      		ldd r18,Y+2
 1962 0090 2533      		cpi r18,lo8(53)
 1963 0092 00F0      		brlo .L82
 1964 0094 80E0      		ldi r24,0
 1965               	.L82:
 1966               	/* epilogue start */
  27:quantum/rgb_matrix_runners/effect_runner_reactive_splash.h **** }
 1967               		.loc 11 27 1 view .LVU389
 1968 0096 2B96      		adiw r28,11
 1969 0098 0FB6      		in __tmp_reg__,__SREG__
 1970 009a F894      		cli
 1971 009c DEBF      		out __SP_H__,r29
 1972 009e 0FBE      		out __SREG__,__tmp_reg__
 1973 00a0 CDBF      		out __SP_L__,r28
 1974 00a2 DF91      		pop r29
 1975 00a4 CF91      		pop r28
 1976 00a6 1F91      		pop r17
 1977 00a8 0F91      		pop r16
 1978 00aa FF90      		pop r15
 1979 00ac EF90      		pop r14
 1980 00ae DF90      		pop r13
 1981 00b0 CF90      		pop r12
 1982 00b2 BF90      		pop r11
 1983 00b4 AF90      		pop r10
 1984 00b6 9F90      		pop r9
 1985 00b8 8F90      		pop r8
 1986 00ba 7F90      		pop r7
 1987 00bc 6F90      		pop r6
 1988 00be 5F90      		pop r5
 1989 00c0 4F90      		pop r4
 1990               	.LVL177:
 1991               		.loc 11 27 1 view .LVU390
 1992 00c2 3F90      		pop r3
 1993 00c4 2F90      		pop r2
 1994 00c6 0895      		ret
 1995               	.LVL178:
 1996               	.L81:
 1997               	.LBB68:
 1998               	.LBB59:
  12:quantum/rgb_matrix_runners/effect_runner_reactive_splash.h ****         RGB_MATRIX_TEST_LED_FLAGS();
 1999               		.loc 11 12 9 is_stmt 1 view .LVU391
 2000 00c8 EA85      		ldd r30,Y+10
 2001 00ca FB85      		ldd r31,Y+11
 2002 00cc E050      		subi r30,lo8(-(g_led_config+154))
 2003 00ce F040      		sbci r31,hi8(-(g_led_config+154))
 2004 00d0 8081      		ld r24,Z
 2005 00d2 F201      		movw r30,r4
 2006 00d4 9181      		ldd r25,Z+1
 2007 00d6 8923      		and r24,r25
 2008 00d8 01F0      		breq .L78
  13:quantum/rgb_matrix_runners/effect_runner_reactive_splash.h ****         hsv.v   = 0;
 2009               		.loc 11 13 9 view .LVU392
  13:quantum/rgb_matrix_runners/effect_runner_reactive_splash.h ****         hsv.v   = 0;
 2010               		.loc 11 13 13 is_stmt 0 view .LVU393
 2011 00da 2090 0000 		lds r2,rgb_matrix_config+1
 2012               	.LVL179:
  13:quantum/rgb_matrix_runners/effect_runner_reactive_splash.h ****         hsv.v   = 0;
 2013               		.loc 11 13 13 view .LVU394
 2014 00de 3090 0000 		lds r3,rgb_matrix_config+2
 2015               	.LVL180:
  14:quantum/rgb_matrix_runners/effect_runner_reactive_splash.h ****         for (uint8_t j = start; j < count; j++) {
 2016               		.loc 11 14 9 is_stmt 1 view .LVU395
  15:quantum/rgb_matrix_runners/effect_runner_reactive_splash.h ****             int16_t  dx   = g_led_config.point[i].x - g_last_hit_tracker.x[j];
 2017               		.loc 11 15 9 view .LVU396
 2018               	.LBB60:
  15:quantum/rgb_matrix_runners/effect_runner_reactive_splash.h ****             int16_t  dx   = g_led_config.point[i].x - g_last_hit_tracker.x[j];
 2019               		.loc 11 15 14 view .LVU397
  15:quantum/rgb_matrix_runners/effect_runner_reactive_splash.h ****             int16_t  dx   = g_led_config.point[i].x - g_last_hit_tracker.x[j];
 2020               		.loc 11 15 14 is_stmt 0 view .LVU398
 2021 00e2 2885      		ldd r18,Y+8
 2022 00e4 3985      		ldd r19,Y+9
 2023 00e6 2050      		subi r18,lo8(-(g_last_hit_tracker))
 2024 00e8 3040      		sbci r19,hi8(-(g_last_hit_tracker))
 2025 00ea 3901      		movw r6,r18
  15:quantum/rgb_matrix_runners/effect_runner_reactive_splash.h ****             int16_t  dx   = g_led_config.point[i].x - g_last_hit_tracker.x[j];
 2026               		.loc 11 15 22 view .LVU399
 2027 00ec 3C81      		ldd r19,Y+4
 2028 00ee 3983      		std Y+1,r19
 2029               	.LBE60:
  14:quantum/rgb_matrix_runners/effect_runner_reactive_splash.h ****         for (uint8_t j = start; j < count; j++) {
 2030               		.loc 11 14 17 view .LVU400
 2031 00f0 10E0      		ldi r17,0
 2032               	.LVL181:
 2033               	.L79:
 2034               	.LBB63:
  15:quantum/rgb_matrix_runners/effect_runner_reactive_splash.h ****             int16_t  dx   = g_led_config.point[i].x - g_last_hit_tracker.x[j];
 2035               		.loc 11 15 33 is_stmt 1 discriminator 1 view .LVU401
  15:quantum/rgb_matrix_runners/effect_runner_reactive_splash.h ****             int16_t  dx   = g_led_config.point[i].x - g_last_hit_tracker.x[j];
 2036               		.loc 11 15 9 is_stmt 0 discriminator 1 view .LVU402
 2037 00f2 2981      		ldd r18,Y+1
 2038 00f4 3D81      		ldd r19,Y+5
 2039 00f6 2317      		cp r18,r19
 2040 00f8 00F0      		brlo .L80
 2041               	.LBE63:
  22:quantum/rgb_matrix_runners/effect_runner_reactive_splash.h ****         RGB rgb = rgb_matrix_hsv_to_rgb(hsv);
 2042               		.loc 11 22 9 is_stmt 1 view .LVU403
 2043               	.LVL182:
 2044               	.LBB64:
 2045               	.LBI64:
  20:./lib/lib8tion/scale8.h **** {
 2046               		.loc 1 20 34 view .LVU404
 2047               	.LBB65:
  61:./lib/lib8tion/scale8.h **** #if (FASTLED_SCALE8_FIXED==1)
 2048               		.loc 1 61 5 view .LVU405
 2049 00fa 2091 0000 		lds r18,rgb_matrix_config+3
 2050               	/* #APP */
 2051               	 ;  61 "./lib/lib8tion/scale8.h" 1
 2052 00fe 129F      		mul r17, r18          
 2053 0100 112D      		mov r17, r1          
 2054 0102 1124      		clr __zero_reg__    
 2055               		
 2056               	 ;  0 "" 2
 2057               	.LVL183:
  85:./lib/lib8tion/scale8.h **** #endif
 2058               		.loc 1 85 5 view .LVU406
  85:./lib/lib8tion/scale8.h **** #endif
 2059               		.loc 1 85 5 is_stmt 0 view .LVU407
 2060               	/* #NOAPP */
 2061               	.LBE65:
 2062               	.LBE64:
  23:quantum/rgb_matrix_runners/effect_runner_reactive_splash.h ****         rgb_matrix_set_color(i, rgb.r, rgb.g, rgb.b);
 2063               		.loc 11 23 9 is_stmt 1 view .LVU408
  23:quantum/rgb_matrix_runners/effect_runner_reactive_splash.h ****         rgb_matrix_set_color(i, rgb.r, rgb.g, rgb.b);
 2064               		.loc 11 23 19 is_stmt 0 view .LVU409
 2065 0104 B101      		movw r22,r2
 2066 0106 812F      		mov r24,r17
 2067 0108 0E94 0000 		call rgb_matrix_hsv_to_rgb
 2068               	.LVL184:
 2069 010c 462F      		mov r20,r22
 2070               	.LVL185:
  24:quantum/rgb_matrix_runners/effect_runner_reactive_splash.h ****     }
 2071               		.loc 11 24 9 is_stmt 1 view .LVU410
  24:quantum/rgb_matrix_runners/effect_runner_reactive_splash.h ****     }
 2072               		.loc 11 24 9 is_stmt 0 view .LVU411
 2073 010e 282F      		mov r18,r24
  24:quantum/rgb_matrix_runners/effect_runner_reactive_splash.h ****     }
 2074               		.loc 11 24 9 view .LVU412
 2075 0110 672F      		mov r22,r23
 2076 0112 8A85      		ldd r24,Y+10
 2077 0114 9B85      		ldd r25,Y+11
  24:quantum/rgb_matrix_runners/effect_runner_reactive_splash.h ****     }
 2078               		.loc 11 24 9 view .LVU413
 2079 0116 0E94 0000 		call rgb_matrix_set_color
 2080               	.LVL186:
 2081               	.L78:
  24:quantum/rgb_matrix_runners/effect_runner_reactive_splash.h ****     }
 2082               		.loc 11 24 9 view .LVU414
 2083               	.LBE59:
  11:quantum/rgb_matrix_runners/effect_runner_reactive_splash.h ****         RGB_MATRIX_TEST_LED_FLAGS();
 2084               		.loc 11 11 44 is_stmt 1 discriminator 2 view .LVU415
  11:quantum/rgb_matrix_runners/effect_runner_reactive_splash.h ****         RGB_MATRIX_TEST_LED_FLAGS();
 2085               		.loc 11 11 44 is_stmt 0 discriminator 2 view .LVU416
 2086 011a 8A85      		ldd r24,Y+10
 2087 011c 9B85      		ldd r25,Y+11
 2088 011e 0196      		adiw r24,1
 2089 0120 9B87      		std Y+11,r25
 2090 0122 8A87      		std Y+10,r24
 2091               	.LVL187:
  11:quantum/rgb_matrix_runners/effect_runner_reactive_splash.h ****         RGB_MATRIX_TEST_LED_FLAGS();
 2092               		.loc 11 11 44 discriminator 2 view .LVU417
 2093 0124 92E0      		ldi r25,2
 2094 0126 C90E      		add r12,r25
 2095 0128 D11C      		adc r13,__zero_reg__
 2096 012a 00C0      		rjmp .L76
 2097               	.LVL188:
 2098               	.L80:
 2099               	.LBB67:
 2100               	.LBB66:
 2101               	.LBB61:
  16:quantum/rgb_matrix_runners/effect_runner_reactive_splash.h ****             int16_t  dy   = g_led_config.point[i].y - g_last_hit_tracker.y[j];
 2102               		.loc 11 16 13 is_stmt 1 discriminator 3 view .LVU418
  16:quantum/rgb_matrix_runners/effect_runner_reactive_splash.h ****             int16_t  dy   = g_led_config.point[i].y - g_last_hit_tracker.y[j];
 2103               		.loc 11 16 75 is_stmt 0 discriminator 3 view .LVU419
 2104 012c F301      		movw r30,r6
 2105 012e 8191      		ld r24,Z+
 2106 0130 3F01      		movw r6,r30
  16:quantum/rgb_matrix_runners/effect_runner_reactive_splash.h ****             int16_t  dy   = g_led_config.point[i].y - g_last_hit_tracker.y[j];
 2107               		.loc 11 16 50 discriminator 3 view .LVU420
 2108 0132 F601      		movw r30,r12
 2109 0134 A0A8      		ldd r10,Z+48
  16:quantum/rgb_matrix_runners/effect_runner_reactive_splash.h ****             int16_t  dy   = g_led_config.point[i].y - g_last_hit_tracker.y[j];
 2110               		.loc 11 16 22 discriminator 3 view .LVU421
 2111 0136 A81A      		sub r10,r24
 2112 0138 BB08      		sbc r11,r11
 2113               	.LVL189:
  17:quantum/rgb_matrix_runners/effect_runner_reactive_splash.h ****             uint8_t  dist = sqrt16(dx * dx + dy * dy);
 2114               		.loc 11 17 13 is_stmt 1 discriminator 3 view .LVU422
  17:quantum/rgb_matrix_runners/effect_runner_reactive_splash.h ****             uint8_t  dist = sqrt16(dx * dx + dy * dy);
 2115               		.loc 11 17 50 is_stmt 0 discriminator 3 view .LVU423
 2116 013a 81A8      		ldd r8,Z+49
  17:quantum/rgb_matrix_runners/effect_runner_reactive_splash.h ****             uint8_t  dist = sqrt16(dx * dx + dy * dy);
 2117               		.loc 11 17 75 discriminator 3 view .LVU424
 2118 013c F301      		movw r30,r6
 2119 013e 8781      		ldd r24,Z+7
  17:quantum/rgb_matrix_runners/effect_runner_reactive_splash.h ****             uint8_t  dist = sqrt16(dx * dx + dy * dy);
 2120               		.loc 11 17 22 discriminator 3 view .LVU425
 2121 0140 881A      		sub r8,r24
 2122 0142 9908      		sbc r9,r9
 2123               	.LVL190:
  18:quantum/rgb_matrix_runners/effect_runner_reactive_splash.h ****             uint16_t tick = scale16by8(g_last_hit_tracker.tick[j], rgb_matrix_config.speed);
 2124               		.loc 11 18 13 is_stmt 1 discriminator 3 view .LVU426
  18:quantum/rgb_matrix_runners/effect_runner_reactive_splash.h ****             uint16_t tick = scale16by8(g_last_hit_tracker.tick[j], rgb_matrix_config.speed);
 2125               		.loc 11 18 39 is_stmt 0 discriminator 3 view .LVU427
 2126 0144 AA9C      		mul r10,r10
 2127 0146 9001      		movw r18,r0
 2128 0148 AB9C      		mul r10,r11
 2129 014a 300D      		add r19,r0
 2130 014c 300D      		add r19,r0
 2131 014e 1124      		clr r1
 2132               	.LVL191:
  18:quantum/rgb_matrix_runners/effect_runner_reactive_splash.h ****             uint16_t tick = scale16by8(g_last_hit_tracker.tick[j], rgb_matrix_config.speed);
 2133               		.loc 11 18 49 discriminator 3 view .LVU428
 2134 0150 889C      		mul r8,r8
 2135 0152 C001      		movw r24,r0
 2136 0154 899C      		mul r8,r9
 2137 0156 900D      		add r25,r0
 2138 0158 900D      		add r25,r0
 2139 015a 1124      		clr r1
  18:quantum/rgb_matrix_runners/effect_runner_reactive_splash.h ****             uint16_t tick = scale16by8(g_last_hit_tracker.tick[j], rgb_matrix_config.speed);
 2140               		.loc 11 18 29 discriminator 3 view .LVU429
 2141 015c 820F      		add r24,r18
 2142 015e 931F      		adc r25,r19
 2143 0160 0E94 0000 		call sqrt16
 2144               	.LVL192:
 2145 0164 082F      		mov r16,r24
 2146               	.LVL193:
  19:quantum/rgb_matrix_runners/effect_runner_reactive_splash.h ****             hsv           = effect_func(hsv, dx, dy, dist, tick);
 2147               		.loc 11 19 13 is_stmt 1 discriminator 3 view .LVU430
  19:quantum/rgb_matrix_runners/effect_runner_reactive_splash.h ****             hsv           = effect_func(hsv, dx, dy, dist, tick);
 2148               		.loc 11 19 29 is_stmt 0 discriminator 3 view .LVU431
 2149 0166 F301      		movw r30,r6
 2150 0168 EE0F      		lsl r30
 2151 016a FF1F      		rol r31
 2152 016c E050      		subi r30,lo8(g_last_hit_tracker)
 2153 016e F040      		sbci r31,hi8(g_last_hit_tracker)
 2154 0170 6091 0000 		lds r22,rgb_matrix_config+4
 2155 0174 8589      		ldd r24,Z+21
 2156 0176 9689      		ldd r25,Z+22
 2157 0178 0E94 0000 		call scale16by8
 2158               	.LVL194:
  20:quantum/rgb_matrix_runners/effect_runner_reactive_splash.h ****         }
 2159               		.loc 11 20 13 is_stmt 1 discriminator 3 view .LVU432
  20:quantum/rgb_matrix_runners/effect_runner_reactive_splash.h ****         }
 2160               		.loc 11 20 29 is_stmt 0 discriminator 3 view .LVU433
 2161 017c 7C01      		movw r14,r24
 2162 017e 9401      		movw r18,r8
 2163 0180 A501      		movw r20,r10
 2164 0182 B101      		movw r22,r2
 2165 0184 812F      		mov r24,r17
 2166               	.LVL195:
  20:quantum/rgb_matrix_runners/effect_runner_reactive_splash.h ****         }
 2167               		.loc 11 20 29 discriminator 3 view .LVU434
 2168 0186 EE81      		ldd r30,Y+6
 2169 0188 FF81      		ldd r31,Y+7
 2170 018a 0995      		icall
 2171               	.LVL196:
 2172 018c 1B01      		movw r2,r22
 2173               	.LVL197:
  20:quantum/rgb_matrix_runners/effect_runner_reactive_splash.h ****         }
 2174               		.loc 11 20 29 discriminator 3 view .LVU435
 2175               	.LBE61:
  15:quantum/rgb_matrix_runners/effect_runner_reactive_splash.h ****             int16_t  dx   = g_led_config.point[i].x - g_last_hit_tracker.x[j];
 2176               		.loc 11 15 44 is_stmt 1 discriminator 3 view .LVU436
  15:quantum/rgb_matrix_runners/effect_runner_reactive_splash.h ****             int16_t  dx   = g_led_config.point[i].x - g_last_hit_tracker.x[j];
 2177               		.loc 11 15 45 is_stmt 0 discriminator 3 view .LVU437
 2178 018e F981      		ldd r31,Y+1
 2179 0190 FF5F      		subi r31,lo8(-(1))
 2180 0192 F983      		std Y+1,r31
 2181               	.LVL198:
 2182               	.LBB62:
  20:quantum/rgb_matrix_runners/effect_runner_reactive_splash.h ****         }
 2183               		.loc 11 20 29 discriminator 3 view .LVU438
 2184 0194 182F      		mov r17,r24
 2185 0196 00C0      		rjmp .L79
 2186               	.LBE62:
 2187               	.LBE66:
 2188               	.LBE67:
 2189               	.LBE68:
 2190               		.cfi_endproc
 2191               	.LFE102:
 2193               		.section	.text.SOLID_SPLASH,"ax",@progbits
 2194               	.global	SOLID_SPLASH
 2196               	SOLID_SPLASH:
 2197               	.LVL199:
 2198               	.LFB105:
  20:quantum/rgb_matrix_animations/solid_splash_anim.h **** 
  21:quantum/rgb_matrix_animations/solid_splash_anim.h **** #            ifndef DISABLE_RGB_MATRIX_SOLID_SPLASH
  22:quantum/rgb_matrix_animations/solid_splash_anim.h **** bool SOLID_SPLASH(effect_params_t* params) { return effect_runner_reactive_splash(qsub8(g_last_hit_
 2199               		.loc 4 22 44 is_stmt 1 view -0
 2200               		.cfi_startproc
 2201               	/* prologue: function */
 2202               	/* frame size = 0 */
 2203               	/* stack size = 0 */
 2204               	.L__stack_usage = 0
 2205               		.loc 4 22 46 view .LVU440
 2206               	.LBB69:
 2207               	.LBI69:
  88:./lib/lib8tion/math8.h **** {
 2208               		.loc 2 88 34 view .LVU441
 2209               	.LBB70:
  96:./lib/lib8tion/math8.h ****          /* First, subtract j from i, conditioning the C flag */
 2210               		.loc 2 96 5 view .LVU442
 2211 0000 2091 0000 		lds r18,g_last_hit_tracker
 2212 0004 31E0      		ldi r19,lo8(1)
 2213               	/* #APP */
 2214               	 ;  96 "./lib/lib8tion/math8.h" 1
 2215 0006 231B      		sub r18, r19    
 2216 0008 00F4      		brcc L_1936     
 2217 000a 20E0      		ldi r18, 0x00  
 2218               		L_1936: 
 2219               	 ;  0 "" 2
 2220               	.LVL200:
 110:./lib/lib8tion/math8.h **** #else
 2221               		.loc 2 110 5 view .LVU443
 110:./lib/lib8tion/math8.h **** #else
 2222               		.loc 2 110 5 is_stmt 0 view .LVU444
 2223               	/* #NOAPP */
 2224               	.LBE70:
 2225               	.LBE69:
 2226               		.loc 4 22 53 view .LVU445
 2227 000c 40E0      		ldi r20,lo8(gs(SOLID_SPLASH_math))
 2228 000e 50E0      		ldi r21,hi8(gs(SOLID_SPLASH_math))
 2229 0010 BC01      		movw r22,r24
 2230 0012 822F      		mov r24,r18
 2231               	.LVL201:
 2232               		.loc 4 22 53 view .LVU446
 2233 0014 0C94 0000 		jmp effect_runner_reactive_splash
 2234               	.LVL202:
 2235               		.loc 4 22 53 view .LVU447
 2236               		.cfi_endproc
 2237               	.LFE105:
 2239               		.section	.text.SOLID_COLOR,"ax",@progbits
 2240               	.global	SOLID_COLOR
 2242               	SOLID_COLOR:
 2243               	.LVL203:
 2244               	.LFB103:
 2245               		.file 12 "quantum/rgb_matrix_animations/solid_color_anim.h"
   1:quantum/rgb_matrix_animations/solid_color_anim.h **** RGB_MATRIX_EFFECT(SOLID_COLOR)
   2:quantum/rgb_matrix_animations/solid_color_anim.h **** #ifdef RGB_MATRIX_CUSTOM_EFFECT_IMPLS
   3:quantum/rgb_matrix_animations/solid_color_anim.h **** 
   4:quantum/rgb_matrix_animations/solid_color_anim.h **** bool SOLID_COLOR(effect_params_t* params) {
 2246               		.loc 12 4 43 is_stmt 1 view -0
 2247               		.cfi_startproc
 2248               		.loc 12 4 43 is_stmt 0 view .LVU449
 2249 0000 BF92      		push r11
 2250               	.LCFI88:
 2251               		.cfi_def_cfa_offset 3
 2252               		.cfi_offset 11, -2
 2253 0002 CF92      		push r12
 2254               	.LCFI89:
 2255               		.cfi_def_cfa_offset 4
 2256               		.cfi_offset 12, -3
 2257 0004 DF92      		push r13
 2258               	.LCFI90:
 2259               		.cfi_def_cfa_offset 5
 2260               		.cfi_offset 13, -4
 2261 0006 EF92      		push r14
 2262               	.LCFI91:
 2263               		.cfi_def_cfa_offset 6
 2264               		.cfi_offset 14, -5
 2265 0008 FF92      		push r15
 2266               	.LCFI92:
 2267               		.cfi_def_cfa_offset 7
 2268               		.cfi_offset 15, -6
 2269 000a 0F93      		push r16
 2270               	.LCFI93:
 2271               		.cfi_def_cfa_offset 8
 2272               		.cfi_offset 16, -7
 2273 000c 1F93      		push r17
 2274               	.LCFI94:
 2275               		.cfi_def_cfa_offset 9
 2276               		.cfi_offset 17, -8
 2277 000e CF93      		push r28
 2278               	.LCFI95:
 2279               		.cfi_def_cfa_offset 10
 2280               		.cfi_offset 28, -9
 2281 0010 DF93      		push r29
 2282               	.LCFI96:
 2283               		.cfi_def_cfa_offset 11
 2284               		.cfi_offset 29, -10
 2285               	/* prologue: function */
 2286               	/* frame size = 0 */
 2287               	/* stack size = 9 */
 2288               	.L__stack_usage = 9
 2289 0012 7C01      		movw r14,r24
   5:quantum/rgb_matrix_animations/solid_color_anim.h ****     RGB_MATRIX_USE_LIMITS(led_min, led_max);
 2290               		.loc 12 5 5 is_stmt 1 view .LVU450
 2291 0014 FC01      		movw r30,r24
 2292 0016 C081      		ld r28,Z
 2293 0018 8BE0      		ldi r24,lo8(11)
 2294               	.LVL204:
 2295               		.loc 12 5 5 is_stmt 0 view .LVU451
 2296 001a C89F      		mul r28,r24
 2297 001c C02D      		mov r28,r0
 2298 001e 1124      		clr r1
 2299               	.LVL205:
 2300               		.loc 12 5 5 is_stmt 1 view .LVU452
 2301 0020 1BE0      		ldi r17,lo8(11)
 2302 0022 1C0F      		add r17,r28
 2303               	.LVL206:
 2304               		.loc 12 5 5 view .LVU453
 2305 0024 012F      		mov r16,r17
 2306 0026 1633      		cpi r17,lo8(54)
 2307 0028 00F0      		brlo .L85
 2308 002a 05E3      		ldi r16,lo8(53)
 2309               	.L85:
 2310               	.LVL207:
 2311               		.loc 12 5 44 view .LVU454
   6:quantum/rgb_matrix_animations/solid_color_anim.h **** 
   7:quantum/rgb_matrix_animations/solid_color_anim.h ****     RGB rgb = rgb_matrix_hsv_to_rgb(rgb_matrix_config.hsv);
 2312               		.loc 12 7 5 view .LVU455
 2313               		.loc 12 7 15 is_stmt 0 view .LVU456
 2314 002c 6091 0000 		lds r22,rgb_matrix_config+1
 2315 0030 7091 0000 		lds r23,rgb_matrix_config+1+1
 2316 0034 8091 0000 		lds r24,rgb_matrix_config+1+2
 2317 0038 0E94 0000 		call rgb_matrix_hsv_to_rgb
 2318               	.LVL208:
 2319 003c D62E      		mov r13,r22
 2320               	.LVL209:
 2321               		.loc 12 7 15 view .LVU457
 2322 003e C72E      		mov r12,r23
 2323               		.loc 12 7 15 view .LVU458
 2324 0040 B82E      		mov r11,r24
   8:quantum/rgb_matrix_animations/solid_color_anim.h ****     for (uint8_t i = led_min; i < led_max; i++) {
 2325               		.loc 12 8 5 is_stmt 1 view .LVU459
 2326               	.LBB71:
 2327               		.loc 12 8 10 view .LVU460
 2328               	.LVL210:
 2329               		.loc 12 8 10 is_stmt 0 view .LVU461
 2330 0042 D0E0      		ldi r29,0
 2331               	.LVL211:
 2332               	.L86:
 2333               		.loc 12 8 31 is_stmt 1 discriminator 1 view .LVU462
 2334               		.loc 12 8 5 is_stmt 0 discriminator 1 view .LVU463
 2335 0044 C017      		cp r28,r16
 2336 0046 00F0      		brlo .L88
 2337               	.LBE71:
   9:quantum/rgb_matrix_animations/solid_color_anim.h ****         RGB_MATRIX_TEST_LED_FLAGS();
  10:quantum/rgb_matrix_animations/solid_color_anim.h ****         rgb_matrix_set_color(i, rgb.r, rgb.g, rgb.b);
  11:quantum/rgb_matrix_animations/solid_color_anim.h ****     }
  12:quantum/rgb_matrix_animations/solid_color_anim.h ****     return led_max < DRIVER_LED_TOTAL;
 2338               		.loc 12 12 5 is_stmt 1 view .LVU464
 2339               		.loc 12 12 20 is_stmt 0 view .LVU465
 2340 0048 81E0      		ldi r24,lo8(1)
 2341 004a 1533      		cpi r17,lo8(53)
 2342 004c 00F0      		brlo .L89
 2343 004e 80E0      		ldi r24,0
 2344               	.L89:
 2345               	/* epilogue start */
  13:quantum/rgb_matrix_animations/solid_color_anim.h **** }
 2346               		.loc 12 13 1 view .LVU466
 2347 0050 DF91      		pop r29
 2348 0052 CF91      		pop r28
 2349               	.LVL212:
 2350               		.loc 12 13 1 view .LVU467
 2351 0054 1F91      		pop r17
 2352 0056 0F91      		pop r16
 2353               	.LVL213:
 2354               		.loc 12 13 1 view .LVU468
 2355 0058 FF90      		pop r15
 2356 005a EF90      		pop r14
 2357               	.LVL214:
 2358               		.loc 12 13 1 view .LVU469
 2359 005c DF90      		pop r13
 2360               	.LVL215:
 2361               		.loc 12 13 1 view .LVU470
 2362 005e CF90      		pop r12
 2363               		.loc 12 13 1 view .LVU471
 2364 0060 BF90      		pop r11
 2365               		.loc 12 13 1 view .LVU472
 2366 0062 0895      		ret
 2367               	.LVL216:
 2368               	.L88:
 2369               	.LBB72:
   9:quantum/rgb_matrix_animations/solid_color_anim.h ****         RGB_MATRIX_TEST_LED_FLAGS();
 2370               		.loc 12 9 9 is_stmt 1 view .LVU473
 2371 0064 FE01      		movw r30,r28
 2372 0066 E050      		subi r30,lo8(-(g_led_config+154))
 2373 0068 F040      		sbci r31,hi8(-(g_led_config+154))
 2374 006a 8081      		ld r24,Z
 2375 006c F701      		movw r30,r14
 2376 006e 9181      		ldd r25,Z+1
 2377 0070 8923      		and r24,r25
 2378 0072 01F0      		breq .L87
  10:quantum/rgb_matrix_animations/solid_color_anim.h ****     }
 2379               		.loc 12 10 9 view .LVU474
 2380 0074 2B2D      		mov r18,r11
 2381 0076 4D2D      		mov r20,r13
 2382 0078 6C2D      		mov r22,r12
 2383 007a CE01      		movw r24,r28
 2384 007c 0E94 0000 		call rgb_matrix_set_color
 2385               	.LVL217:
 2386               	.L87:
   8:quantum/rgb_matrix_animations/solid_color_anim.h ****         RGB_MATRIX_TEST_LED_FLAGS();
 2387               		.loc 12 8 44 discriminator 2 view .LVU475
   8:quantum/rgb_matrix_animations/solid_color_anim.h ****         RGB_MATRIX_TEST_LED_FLAGS();
 2388               		.loc 12 8 44 is_stmt 0 discriminator 2 view .LVU476
 2389 0080 2196      		adiw r28,1
 2390               	.LVL218:
   8:quantum/rgb_matrix_animations/solid_color_anim.h ****         RGB_MATRIX_TEST_LED_FLAGS();
 2391               		.loc 12 8 44 discriminator 2 view .LVU477
 2392 0082 00C0      		rjmp .L86
 2393               	.LBE72:
 2394               		.cfi_endproc
 2395               	.LFE103:
 2397               		.section	.text.rgb_matrix_set_color_all,"ax",@progbits
 2398               	.global	rgb_matrix_set_color_all
 2400               	rgb_matrix_set_color_all:
 2401               	.LVL219:
 2402               	.LFB118:
 197:quantum/rgb_matrix.c **** }
 198:quantum/rgb_matrix.c **** 
 199:quantum/rgb_matrix.c **** void rgb_matrix_set_color_all(uint8_t red, uint8_t green, uint8_t blue) {
 2403               		.loc 5 199 73 is_stmt 1 view -0
 2404               		.cfi_startproc
 2405               	/* prologue: function */
 2406               	/* frame size = 0 */
 2407               	/* stack size = 0 */
 2408               	.L__stack_usage = 0
 200:quantum/rgb_matrix.c **** #if defined(RGB_MATRIX_ENABLE) && defined(RGB_MATRIX_SPLIT)
 201:quantum/rgb_matrix.c ****     for (uint8_t i = 0; i < DRIVER_LED_TOTAL; i++) rgb_matrix_set_color(i, red, green, blue);
 202:quantum/rgb_matrix.c **** #else
 203:quantum/rgb_matrix.c ****     rgb_matrix_driver.set_color_all(red, green, blue);
 2409               		.loc 5 203 5 view .LVU479
 2410 0000 E091 0000 		lds r30,rgb_matrix_driver+4
 2411 0004 F091 0000 		lds r31,rgb_matrix_driver+4+1
 2412 0008 0994      		ijmp
 2413               	.LVL220:
 2414               		.loc 5 203 5 is_stmt 0 view .LVU480
 2415               		.cfi_endproc
 2416               	.LFE118:
 2418               		.section	.text.process_rgb_matrix,"ax",@progbits
 2419               	.global	process_rgb_matrix
 2421               	process_rgb_matrix:
 2422               	.LVL221:
 2423               	.LFB119:
 204:quantum/rgb_matrix.c **** #endif
 205:quantum/rgb_matrix.c **** }
 206:quantum/rgb_matrix.c **** 
 207:quantum/rgb_matrix.c **** void process_rgb_matrix(uint8_t row, uint8_t col, bool pressed) {
 2424               		.loc 5 207 65 is_stmt 1 view -0
 2425               		.cfi_startproc
 2426               		.loc 5 207 65 is_stmt 0 view .LVU482
 2427 0000 CF92      		push r12
 2428               	.LCFI97:
 2429               		.cfi_def_cfa_offset 3
 2430               		.cfi_offset 12, -2
 2431 0002 DF92      		push r13
 2432               	.LCFI98:
 2433               		.cfi_def_cfa_offset 4
 2434               		.cfi_offset 13, -3
 2435 0004 EF92      		push r14
 2436               	.LCFI99:
 2437               		.cfi_def_cfa_offset 5
 2438               		.cfi_offset 14, -4
 2439 0006 FF92      		push r15
 2440               	.LCFI100:
 2441               		.cfi_def_cfa_offset 6
 2442               		.cfi_offset 15, -5
 2443 0008 0F93      		push r16
 2444               	.LCFI101:
 2445               		.cfi_def_cfa_offset 7
 2446               		.cfi_offset 16, -6
 2447 000a 1F93      		push r17
 2448               	.LCFI102:
 2449               		.cfi_def_cfa_offset 8
 2450               		.cfi_offset 17, -7
 2451 000c CF93      		push r28
 2452               	.LCFI103:
 2453               		.cfi_def_cfa_offset 9
 2454               		.cfi_offset 28, -8
 2455 000e DF93      		push r29
 2456               	.LCFI104:
 2457               		.cfi_def_cfa_offset 10
 2458               		.cfi_offset 29, -9
 2459 0010 CDB7      		in r28,__SP_L__
 2460 0012 DEB7      		in r29,__SP_H__
 2461               	.LCFI105:
 2462               		.cfi_def_cfa_register 28
 2463 0014 2897      		sbiw r28,8
 2464               	.LCFI106:
 2465               		.cfi_def_cfa_offset 18
 2466 0016 0FB6      		in __tmp_reg__,__SREG__
 2467 0018 F894      		cli
 2468 001a DEBF      		out __SP_H__,r29
 2469 001c 0FBE      		out __SREG__,__tmp_reg__
 2470 001e CDBF      		out __SP_L__,r28
 2471               	/* prologue: function */
 2472               	/* frame size = 8 */
 2473               	/* stack size = 16 */
 2474               	.L__stack_usage = 16
 2475 0020 182F      		mov r17,r24
 2476 0022 062F      		mov r16,r22
 2477 0024 F42E      		mov r15,r20
 208:quantum/rgb_matrix.c **** #ifndef RGB_MATRIX_SPLIT
 209:quantum/rgb_matrix.c ****     if (!is_keyboard_master()) return;
 2478               		.loc 5 209 5 is_stmt 1 view .LVU483
 2479               		.loc 5 209 10 is_stmt 0 view .LVU484
 2480 0026 0E94 0000 		call is_keyboard_master
 2481               	.LVL222:
 2482               		.loc 5 209 8 view .LVU485
 2483 002a 8823      		tst r24
 2484 002c 01F4      		brne .+2
 2485 002e 00C0      		rjmp .L94
 210:quantum/rgb_matrix.c **** #endif
 211:quantum/rgb_matrix.c **** #if RGB_DISABLE_TIMEOUT > 0
 212:quantum/rgb_matrix.c ****     rgb_anykey_timer = 0;
 213:quantum/rgb_matrix.c **** #endif  // RGB_DISABLE_TIMEOUT > 0
 214:quantum/rgb_matrix.c **** 
 215:quantum/rgb_matrix.c **** #ifdef RGB_MATRIX_KEYREACTIVE_ENABLED
 216:quantum/rgb_matrix.c ****     uint8_t led[LED_HITS_TO_REMEMBER];
 2486               		.loc 5 216 5 is_stmt 1 view .LVU486
 217:quantum/rgb_matrix.c ****     uint8_t led_count = 0;
 2487               		.loc 5 217 5 view .LVU487
 2488               	.LVL223:
 218:quantum/rgb_matrix.c **** 
 219:quantum/rgb_matrix.c **** #    if defined(RGB_MATRIX_KEYRELEASES)
 220:quantum/rgb_matrix.c ****     if (!pressed)
 221:quantum/rgb_matrix.c **** #    elif defined(RGB_MATRIX_KEYPRESSES)
 222:quantum/rgb_matrix.c ****     if (pressed)
 2489               		.loc 5 222 5 view .LVU488
 2490               		.loc 5 222 8 is_stmt 0 view .LVU489
 2491 0030 FF20      		tst r15
 2492 0032 01F4      		brne .+2
 2493 0034 00C0      		rjmp .L101
 223:quantum/rgb_matrix.c **** #    endif  // defined(RGB_MATRIX_KEYRELEASES)
 224:quantum/rgb_matrix.c ****     {
 225:quantum/rgb_matrix.c ****         led_count = rgb_matrix_map_row_column_to_led(row, col, led);
 2494               		.loc 5 225 9 is_stmt 1 view .LVU490
 2495               		.loc 5 225 21 is_stmt 0 view .LVU491
 2496 0036 AE01      		movw r20,r28
 2497 0038 4F5F      		subi r20,-1
 2498 003a 5F4F      		sbci r21,-1
 2499 003c 602F      		mov r22,r16
 2500 003e 812F      		mov r24,r17
 2501 0040 0E94 0000 		call rgb_matrix_map_row_column_to_led
 2502               	.LVL224:
 2503 0044 F82E      		mov r15,r24
 2504               	.LVL225:
 2505               	.L97:
 226:quantum/rgb_matrix.c ****     }
 227:quantum/rgb_matrix.c **** 
 228:quantum/rgb_matrix.c ****     if (last_hit_buffer.count + led_count > LED_HITS_TO_REMEMBER) {
 2506               		.loc 5 228 5 is_stmt 1 view .LVU492
 2507               		.loc 5 228 24 is_stmt 0 view .LVU493
 2508 0046 E090 0000 		lds r14,last_hit_buffer
 2509               		.loc 5 228 31 view .LVU494
 2510 004a 0F2D      		mov r16,r15
 2511               	.LVL226:
 2512               		.loc 5 228 31 view .LVU495
 2513 004c 10E0      		ldi r17,0
 2514               	.LVL227:
 2515               		.loc 5 228 31 view .LVU496
 2516 004e C801      		movw r24,r16
 2517 0050 8E0D      		add r24,r14
 2518 0052 911D      		adc r25,__zero_reg__
 2519               		.loc 5 228 8 view .LVU497
 2520 0054 0997      		sbiw r24,9
 2521 0056 04F0      		brlt .L98
 229:quantum/rgb_matrix.c ****         memcpy(&last_hit_buffer.x[0], &last_hit_buffer.x[led_count], LED_HITS_TO_REMEMBER - led_cou
 2522               		.loc 5 229 9 is_stmt 1 view .LVU498
 2523               		.loc 5 229 91 is_stmt 0 view .LVU499
 2524 0058 88E0      		ldi r24,lo8(8)
 2525 005a 90E0      		ldi r25,0
 2526 005c 6C01      		movw r12,r24
 2527 005e C01A      		sub r12,r16
 2528 0060 D10A      		sbc r13,r17
 2529               		.loc 5 229 39 view .LVU500
 2530 0062 B801      		movw r22,r16
 2531 0064 6050      		subi r22,lo8(-(last_hit_buffer+1))
 2532 0066 7040      		sbci r23,hi8(-(last_hit_buffer+1))
 2533               		.loc 5 229 9 view .LVU501
 2534 0068 A601      		movw r20,r12
 2535 006a 80E0      		ldi r24,lo8(last_hit_buffer+1)
 2536 006c 90E0      		ldi r25,hi8(last_hit_buffer+1)
 2537 006e 0E94 0000 		call memcpy
 2538               	.LVL228:
 230:quantum/rgb_matrix.c ****         memcpy(&last_hit_buffer.y[0], &last_hit_buffer.y[led_count], LED_HITS_TO_REMEMBER - led_cou
 2539               		.loc 5 230 9 is_stmt 1 view .LVU502
 2540               		.loc 5 230 39 is_stmt 0 view .LVU503
 2541 0072 B801      		movw r22,r16
 2542 0074 6050      		subi r22,lo8(-(last_hit_buffer+9))
 2543 0076 7040      		sbci r23,hi8(-(last_hit_buffer+9))
 2544               		.loc 5 230 9 view .LVU504
 2545 0078 A601      		movw r20,r12
 2546 007a 80E0      		ldi r24,lo8(last_hit_buffer+9)
 2547 007c 90E0      		ldi r25,hi8(last_hit_buffer+9)
 2548 007e 0E94 0000 		call memcpy
 2549               	.LVL229:
 231:quantum/rgb_matrix.c ****         memcpy(&last_hit_buffer.tick[0], &last_hit_buffer.tick[led_count], (LED_HITS_TO_REMEMBER - 
 2550               		.loc 5 231 9 is_stmt 1 view .LVU505
 2551               		.loc 5 231 111 is_stmt 0 view .LVU506
 2552 0082 A601      		movw r20,r12
 2553 0084 440F      		lsl r20
 2554 0086 551F      		rol r21
 2555               		.loc 5 231 42 view .LVU507
 2556 0088 B801      		movw r22,r16
 2557 008a 660F      		lsl r22
 2558 008c 771F      		rol r23
 2559 008e 6050      		subi r22,lo8(-(last_hit_buffer+25))
 2560 0090 7040      		sbci r23,hi8(-(last_hit_buffer+25))
 2561               		.loc 5 231 9 view .LVU508
 2562 0092 80E0      		ldi r24,lo8(last_hit_buffer+25)
 2563 0094 90E0      		ldi r25,hi8(last_hit_buffer+25)
 2564 0096 0E94 0000 		call memcpy
 2565               	.LVL230:
 232:quantum/rgb_matrix.c ****         memcpy(&last_hit_buffer.index[0], &last_hit_buffer.index[led_count], LED_HITS_TO_REMEMBER -
 2566               		.loc 5 232 9 is_stmt 1 view .LVU509
 2567               		.loc 5 232 43 is_stmt 0 view .LVU510
 2568 009a B801      		movw r22,r16
 2569 009c 6050      		subi r22,lo8(-(last_hit_buffer+17))
 2570 009e 7040      		sbci r23,hi8(-(last_hit_buffer+17))
 2571               		.loc 5 232 9 view .LVU511
 2572 00a0 A601      		movw r20,r12
 2573 00a2 80E0      		ldi r24,lo8(last_hit_buffer+17)
 2574 00a4 90E0      		ldi r25,hi8(last_hit_buffer+17)
 2575 00a6 0E94 0000 		call memcpy
 2576               	.LVL231:
 233:quantum/rgb_matrix.c ****         last_hit_buffer.count--;
 2577               		.loc 5 233 9 is_stmt 1 view .LVU512
 2578               		.loc 5 233 30 is_stmt 0 view .LVU513
 2579 00aa EA94      		dec r14
 2580 00ac E092 0000 		sts last_hit_buffer,r14
 2581               	.L98:
 2582 00b0 1091 0000 		lds r17,last_hit_buffer
 2583 00b4 DE01      		movw r26,r28
 2584 00b6 1196      		adiw r26,1
 217:quantum/rgb_matrix.c **** 
 2585               		.loc 5 217 13 discriminator 1 view .LVU514
 2586 00b8 40E0      		ldi r20,0
 2587               	.L99:
 217:quantum/rgb_matrix.c **** 
 2588               		.loc 5 217 13 discriminator 1 view .LVU515
 2589 00ba 842F      		mov r24,r20
 2590 00bc 810F      		add r24,r17
 2591               	.LVL232:
 2592               	.LBB73:
 234:quantum/rgb_matrix.c ****     }
 235:quantum/rgb_matrix.c **** 
 236:quantum/rgb_matrix.c ****     for (uint8_t i = 0; i < led_count; i++) {
 2593               		.loc 5 236 25 is_stmt 1 discriminator 1 view .LVU516
 2594               		.loc 5 236 5 is_stmt 0 discriminator 1 view .LVU517
 2595 00be F412      		cpse r15,r20
 2596 00c0 00C0      		rjmp .L100
 2597 00c2 8093 0000 		sts last_hit_buffer,r24
 2598               	.LVL233:
 2599               	.L94:
 2600               	/* epilogue start */
 2601               		.loc 5 236 5 discriminator 1 view .LVU518
 2602               	.LBE73:
 237:quantum/rgb_matrix.c ****         uint8_t index                = last_hit_buffer.count;
 238:quantum/rgb_matrix.c ****         last_hit_buffer.x[index]     = g_led_config.point[led[i]].x;
 239:quantum/rgb_matrix.c ****         last_hit_buffer.y[index]     = g_led_config.point[led[i]].y;
 240:quantum/rgb_matrix.c ****         last_hit_buffer.index[index] = led[i];
 241:quantum/rgb_matrix.c ****         last_hit_buffer.tick[index]  = 0;
 242:quantum/rgb_matrix.c ****         last_hit_buffer.count++;
 243:quantum/rgb_matrix.c ****     }
 244:quantum/rgb_matrix.c **** #endif  // RGB_MATRIX_KEYREACTIVE_ENABLED
 245:quantum/rgb_matrix.c **** 
 246:quantum/rgb_matrix.c **** #if defined(RGB_MATRIX_FRAMEBUFFER_EFFECTS) && !defined(DISABLE_RGB_MATRIX_TYPING_HEATMAP)
 247:quantum/rgb_matrix.c ****     if (rgb_matrix_config.mode == RGB_MATRIX_TYPING_HEATMAP) {
 248:quantum/rgb_matrix.c ****         process_rgb_matrix_typing_heatmap(row, col);
 249:quantum/rgb_matrix.c ****     }
 250:quantum/rgb_matrix.c **** #endif  // defined(RGB_MATRIX_FRAMEBUFFER_EFFECTS) && !defined(DISABLE_RGB_MATRIX_TYPING_HEATMAP)
 251:quantum/rgb_matrix.c **** }
 2603               		.loc 5 251 1 view .LVU519
 2604 00c6 2896      		adiw r28,8
 2605 00c8 0FB6      		in __tmp_reg__,__SREG__
 2606 00ca F894      		cli
 2607 00cc DEBF      		out __SP_H__,r29
 2608 00ce 0FBE      		out __SREG__,__tmp_reg__
 2609 00d0 CDBF      		out __SP_L__,r28
 2610 00d2 DF91      		pop r29
 2611 00d4 CF91      		pop r28
 2612 00d6 1F91      		pop r17
 2613 00d8 0F91      		pop r16
 2614 00da FF90      		pop r15
 2615 00dc EF90      		pop r14
 2616 00de DF90      		pop r13
 2617 00e0 CF90      		pop r12
 2618 00e2 0895      		ret
 2619               	.LVL234:
 2620               	.L101:
 217:quantum/rgb_matrix.c **** 
 2621               		.loc 5 217 13 view .LVU520
 2622 00e4 F12C      		mov r15,__zero_reg__
 2623               	.LVL235:
 217:quantum/rgb_matrix.c **** 
 2624               		.loc 5 217 13 view .LVU521
 2625 00e6 00C0      		rjmp .L97
 2626               	.LVL236:
 2627               	.L100:
 2628               	.LBB75:
 2629               	.LBB74:
 237:quantum/rgb_matrix.c ****         uint8_t index                = last_hit_buffer.count;
 2630               		.loc 5 237 9 is_stmt 1 discriminator 3 view .LVU522
 238:quantum/rgb_matrix.c ****         last_hit_buffer.y[index]     = g_led_config.point[led[i]].y;
 2631               		.loc 5 238 9 discriminator 3 view .LVU523
 238:quantum/rgb_matrix.c ****         last_hit_buffer.y[index]     = g_led_config.point[led[i]].y;
 2632               		.loc 5 238 62 is_stmt 0 discriminator 3 view .LVU524
 2633 00e8 5D91      		ld r21,X+
 2634 00ea 252F      		mov r18,r21
 2635 00ec 30E0      		ldi r19,0
 238:quantum/rgb_matrix.c ****         last_hit_buffer.y[index]     = g_led_config.point[led[i]].y;
 2636               		.loc 5 238 26 discriminator 3 view .LVU525
 2637 00ee 90E0      		ldi r25,0
 238:quantum/rgb_matrix.c ****         last_hit_buffer.y[index]     = g_led_config.point[led[i]].y;
 2638               		.loc 5 238 38 discriminator 3 view .LVU526
 2639 00f0 BC01      		movw r22,r24
 2640 00f2 6050      		subi r22,lo8(-(last_hit_buffer))
 2641 00f4 7040      		sbci r23,hi8(-(last_hit_buffer))
 238:quantum/rgb_matrix.c ****         last_hit_buffer.y[index]     = g_led_config.point[led[i]].y;
 2642               		.loc 5 238 66 discriminator 3 view .LVU527
 2643 00f6 F901      		movw r30,r18
 2644 00f8 EE0F      		lsl r30
 2645 00fa FF1F      		rol r31
 2646 00fc E050      		subi r30,lo8(-(g_led_config+48))
 2647 00fe F040      		sbci r31,hi8(-(g_led_config+48))
 238:quantum/rgb_matrix.c ****         last_hit_buffer.y[index]     = g_led_config.point[led[i]].y;
 2648               		.loc 5 238 38 discriminator 3 view .LVU528
 2649 0100 0081      		ld r16,Z
 2650 0102 FB01      		movw r30,r22
 2651 0104 0183      		std Z+1,r16
 239:quantum/rgb_matrix.c ****         last_hit_buffer.index[index] = led[i];
 2652               		.loc 5 239 9 is_stmt 1 discriminator 3 view .LVU529
 239:quantum/rgb_matrix.c ****         last_hit_buffer.index[index] = led[i];
 2653               		.loc 5 239 66 is_stmt 0 discriminator 3 view .LVU530
 2654 0106 220F      		lsl r18
 2655 0108 331F      		rol r19
 2656 010a F901      		movw r30,r18
 2657 010c E050      		subi r30,lo8(-(g_led_config))
 2658 010e F040      		sbci r31,hi8(-(g_led_config))
 239:quantum/rgb_matrix.c ****         last_hit_buffer.index[index] = led[i];
 2659               		.loc 5 239 38 discriminator 3 view .LVU531
 2660 0110 21A9      		ldd r18,Z+49
 2661 0112 FB01      		movw r30,r22
 2662 0114 2187      		std Z+9,r18
 240:quantum/rgb_matrix.c ****         last_hit_buffer.tick[index]  = 0;
 2663               		.loc 5 240 9 is_stmt 1 discriminator 3 view .LVU532
 240:quantum/rgb_matrix.c ****         last_hit_buffer.tick[index]  = 0;
 2664               		.loc 5 240 38 is_stmt 0 discriminator 3 view .LVU533
 2665 0116 518B      		std Z+17,r21
 241:quantum/rgb_matrix.c ****         last_hit_buffer.count++;
 2666               		.loc 5 241 9 is_stmt 1 discriminator 3 view .LVU534
 241:quantum/rgb_matrix.c ****         last_hit_buffer.count++;
 2667               		.loc 5 241 38 is_stmt 0 discriminator 3 view .LVU535
 2668 0118 880F      		lsl r24
 2669 011a 991F      		rol r25
 2670               	.LVL237:
 241:quantum/rgb_matrix.c ****         last_hit_buffer.count++;
 2671               		.loc 5 241 38 discriminator 3 view .LVU536
 2672 011c FC01      		movw r30,r24
 2673 011e E050      		subi r30,lo8(-(last_hit_buffer))
 2674 0120 F040      		sbci r31,hi8(-(last_hit_buffer))
 2675 0122 128E      		std Z+26,__zero_reg__
 2676 0124 118E      		std Z+25,__zero_reg__
 242:quantum/rgb_matrix.c ****     }
 2677               		.loc 5 242 9 is_stmt 1 discriminator 3 view .LVU537
 2678               	.LBE74:
 236:quantum/rgb_matrix.c ****         uint8_t index                = last_hit_buffer.count;
 2679               		.loc 5 236 40 discriminator 3 view .LVU538
 236:quantum/rgb_matrix.c ****         uint8_t index                = last_hit_buffer.count;
 2680               		.loc 5 236 41 is_stmt 0 discriminator 3 view .LVU539
 2681 0126 4F5F      		subi r20,lo8(-(1))
 2682               	.LVL238:
 236:quantum/rgb_matrix.c ****         uint8_t index                = last_hit_buffer.count;
 2683               		.loc 5 236 41 discriminator 3 view .LVU540
 2684 0128 00C0      		rjmp .L99
 2685               	.LBE75:
 2686               		.cfi_endproc
 2687               	.LFE119:
 2689               		.section	.text.rgb_matrix_test,"ax",@progbits
 2690               	.global	rgb_matrix_test
 2692               	rgb_matrix_test:
 2693               	.LFB120:
 252:quantum/rgb_matrix.c **** 
 253:quantum/rgb_matrix.c **** void rgb_matrix_test(void) {
 2694               		.loc 5 253 28 is_stmt 1 view -0
 2695               		.cfi_startproc
 2696               	/* prologue: function */
 2697               	/* frame size = 0 */
 2698               	/* stack size = 0 */
 2699               	.L__stack_usage = 0
 254:quantum/rgb_matrix.c ****     // Mask out bits 4 and 5
 255:quantum/rgb_matrix.c ****     // Increase the factor to make the test animation slower (and reduce to make it faster)
 256:quantum/rgb_matrix.c ****     uint8_t factor = 10;
 2700               		.loc 5 256 5 view .LVU542
 2701               	.LVL239:
 257:quantum/rgb_matrix.c ****     switch ((g_rgb_timer & (0b11 << factor)) >> factor) {
 2702               		.loc 5 257 5 view .LVU543
 2703               		.loc 5 257 46 is_stmt 0 view .LVU544
 2704 0000 8091 0000 		lds r24,g_rgb_timer
 2705 0004 9091 0000 		lds r25,g_rgb_timer+1
 2706 0008 A091 0000 		lds r26,g_rgb_timer+2
 2707 000c B091 0000 		lds r27,g_rgb_timer+3
 2708 0010 2AE0      		ldi r18,10
 2709               		1:
 2710 0012 B695      		lsr r27
 2711 0014 A795      		ror r26
 2712 0016 9795      		ror r25
 2713 0018 8795      		ror r24
 2714 001a 2A95      		dec r18
 2715 001c 01F4      		brne 1b
 2716 001e 8370      		andi r24,3
 2717 0020 9927      		clr r25
 2718 0022 AA27      		clr r26
 2719 0024 BB27      		clr r27
 2720               		.loc 5 257 5 view .LVU545
 2721 0026 8230      		cpi r24,2
 2722 0028 9105      		cpc r25,__zero_reg__
 2723 002a A105      		cpc r26,__zero_reg__
 2724 002c B105      		cpc r27,__zero_reg__
 2725 002e 01F0      		breq .L103
 2726 0030 8330      		cpi r24,3
 2727 0032 9105      		cpc r25,__zero_reg__
 2728 0034 A105      		cpc r26,__zero_reg__
 2729 0036 B105      		cpc r27,__zero_reg__
 2730 0038 01F0      		breq .L104
 258:quantum/rgb_matrix.c ****         case 0: {
 259:quantum/rgb_matrix.c ****             rgb_matrix_set_color_all(20, 0, 0);
 2731               		.loc 5 259 13 view .LVU546
 2732 003a 40E0      		ldi r20,0
 2733 003c 60E0      		ldi r22,0
 257:quantum/rgb_matrix.c ****     switch ((g_rgb_timer & (0b11 << factor)) >> factor) {
 2734               		.loc 5 257 5 view .LVU547
 2735 003e 0197      		sbiw r24,1
 2736 0040 A105      		cpc r26,__zero_reg__
 2737 0042 B105      		cpc r27,__zero_reg__
 2738 0044 01F4      		brne .L106
 260:quantum/rgb_matrix.c ****             break;
 261:quantum/rgb_matrix.c ****         }
 262:quantum/rgb_matrix.c ****         case 1: {
 263:quantum/rgb_matrix.c ****             rgb_matrix_set_color_all(0, 20, 0);
 2739               		.loc 5 263 13 is_stmt 1 view .LVU548
 2740 0046 64E1      		ldi r22,lo8(20)
 2741               	.L108:
 264:quantum/rgb_matrix.c ****             break;
 265:quantum/rgb_matrix.c ****         }
 266:quantum/rgb_matrix.c ****         case 2: {
 267:quantum/rgb_matrix.c ****             rgb_matrix_set_color_all(0, 0, 20);
 2742               		.loc 5 267 13 is_stmt 0 view .LVU549
 2743 0048 80E0      		ldi r24,0
 2744               	.L107:
 268:quantum/rgb_matrix.c ****             break;
 269:quantum/rgb_matrix.c ****         }
 270:quantum/rgb_matrix.c ****         case 3: {
 271:quantum/rgb_matrix.c ****             rgb_matrix_set_color_all(20, 20, 20);
 2745               		.loc 5 271 13 view .LVU550
 2746 004a 0C94 0000 		jmp rgb_matrix_set_color_all
 2747               	.LVL240:
 2748               	.L103:
 267:quantum/rgb_matrix.c ****             break;
 2749               		.loc 5 267 13 is_stmt 1 view .LVU551
 2750 004e 44E1      		ldi r20,lo8(20)
 2751 0050 60E0      		ldi r22,0
 2752 0052 00C0      		rjmp .L108
 2753               	.L104:
 2754               		.loc 5 271 13 view .LVU552
 2755 0054 44E1      		ldi r20,lo8(20)
 2756 0056 64E1      		ldi r22,lo8(20)
 2757               	.L106:
 2758 0058 84E1      		ldi r24,lo8(20)
 2759 005a 00C0      		rjmp .L107
 2760               		.cfi_endproc
 2761               	.LFE120:
 2763               		.section	.text.rgb_matrix_indicators_kb,"ax",@progbits
 2764               		.weak	rgb_matrix_indicators_kb
 2766               	rgb_matrix_indicators_kb:
 2767               	.LFB129:
 272:quantum/rgb_matrix.c ****             break;
 273:quantum/rgb_matrix.c ****         }
 274:quantum/rgb_matrix.c ****     }
 275:quantum/rgb_matrix.c **** }
 276:quantum/rgb_matrix.c **** 
 277:quantum/rgb_matrix.c **** static bool rgb_matrix_none(effect_params_t *params) {
 278:quantum/rgb_matrix.c ****     if (!params->init) {
 279:quantum/rgb_matrix.c ****         return false;
 280:quantum/rgb_matrix.c ****     }
 281:quantum/rgb_matrix.c **** 
 282:quantum/rgb_matrix.c ****     rgb_matrix_set_color_all(0, 0, 0);
 283:quantum/rgb_matrix.c ****     return false;
 284:quantum/rgb_matrix.c **** }
 285:quantum/rgb_matrix.c **** 
 286:quantum/rgb_matrix.c **** static void rgb_task_timers(void) {
 287:quantum/rgb_matrix.c **** #if defined(RGB_MATRIX_KEYREACTIVE_ENABLED) || RGB_DISABLE_TIMEOUT > 0
 288:quantum/rgb_matrix.c ****     uint32_t deltaTime = sync_timer_elapsed32(rgb_timer_buffer);
 289:quantum/rgb_matrix.c **** #endif  // defined(RGB_MATRIX_KEYREACTIVE_ENABLED) || RGB_DISABLE_TIMEOUT > 0
 290:quantum/rgb_matrix.c ****     rgb_timer_buffer = sync_timer_read32();
 291:quantum/rgb_matrix.c **** 
 292:quantum/rgb_matrix.c ****     // Update double buffer timers
 293:quantum/rgb_matrix.c **** #if RGB_DISABLE_TIMEOUT > 0
 294:quantum/rgb_matrix.c ****     if (rgb_anykey_timer < UINT32_MAX) {
 295:quantum/rgb_matrix.c ****         if (UINT32_MAX - deltaTime < rgb_anykey_timer) {
 296:quantum/rgb_matrix.c ****             rgb_anykey_timer = UINT32_MAX;
 297:quantum/rgb_matrix.c ****         } else {
 298:quantum/rgb_matrix.c ****             rgb_anykey_timer += deltaTime;
 299:quantum/rgb_matrix.c ****         }
 300:quantum/rgb_matrix.c ****     }
 301:quantum/rgb_matrix.c **** #endif  // RGB_DISABLE_TIMEOUT > 0
 302:quantum/rgb_matrix.c **** 
 303:quantum/rgb_matrix.c ****     // Update double buffer last hit timers
 304:quantum/rgb_matrix.c **** #ifdef RGB_MATRIX_KEYREACTIVE_ENABLED
 305:quantum/rgb_matrix.c ****     uint8_t count = last_hit_buffer.count;
 306:quantum/rgb_matrix.c ****     for (uint8_t i = 0; i < count; ++i) {
 307:quantum/rgb_matrix.c ****         if (UINT16_MAX - deltaTime < last_hit_buffer.tick[i]) {
 308:quantum/rgb_matrix.c ****             last_hit_buffer.count--;
 309:quantum/rgb_matrix.c ****             continue;
 310:quantum/rgb_matrix.c ****         }
 311:quantum/rgb_matrix.c ****         last_hit_buffer.tick[i] += deltaTime;
 312:quantum/rgb_matrix.c ****     }
 313:quantum/rgb_matrix.c **** #endif  // RGB_MATRIX_KEYREACTIVE_ENABLED
 314:quantum/rgb_matrix.c **** }
 315:quantum/rgb_matrix.c **** 
 316:quantum/rgb_matrix.c **** static void rgb_task_sync(void) {
 317:quantum/rgb_matrix.c ****     // next task
 318:quantum/rgb_matrix.c ****     if (sync_timer_elapsed32(g_rgb_timer) >= RGB_MATRIX_LED_FLUSH_LIMIT) rgb_task_state = STARTING;
 319:quantum/rgb_matrix.c **** }
 320:quantum/rgb_matrix.c **** 
 321:quantum/rgb_matrix.c **** static void rgb_task_start(void) {
 322:quantum/rgb_matrix.c ****     // reset iter
 323:quantum/rgb_matrix.c ****     rgb_effect_params.iter = 0;
 324:quantum/rgb_matrix.c **** 
 325:quantum/rgb_matrix.c ****     // update double buffers
 326:quantum/rgb_matrix.c ****     g_rgb_timer = rgb_timer_buffer;
 327:quantum/rgb_matrix.c **** #ifdef RGB_MATRIX_KEYREACTIVE_ENABLED
 328:quantum/rgb_matrix.c ****     g_last_hit_tracker = last_hit_buffer;
 329:quantum/rgb_matrix.c **** #endif  // RGB_MATRIX_KEYREACTIVE_ENABLED
 330:quantum/rgb_matrix.c **** 
 331:quantum/rgb_matrix.c ****     // next task
 332:quantum/rgb_matrix.c ****     rgb_task_state = RENDERING;
 333:quantum/rgb_matrix.c **** }
 334:quantum/rgb_matrix.c **** 
 335:quantum/rgb_matrix.c **** static void rgb_task_render(uint8_t effect) {
 336:quantum/rgb_matrix.c ****     bool rendering         = false;
 337:quantum/rgb_matrix.c ****     rgb_effect_params.init = (effect != rgb_last_effect) || (rgb_matrix_config.enable != rgb_last_e
 338:quantum/rgb_matrix.c ****     if (rgb_effect_params.flags != rgb_matrix_config.flags) {
 339:quantum/rgb_matrix.c ****         rgb_effect_params.flags = rgb_matrix_config.flags;
 340:quantum/rgb_matrix.c ****         rgb_matrix_set_color_all(0, 0, 0);
 341:quantum/rgb_matrix.c ****     }
 342:quantum/rgb_matrix.c **** 
 343:quantum/rgb_matrix.c ****     // each effect can opt to do calculations
 344:quantum/rgb_matrix.c ****     // and/or request PWM buffer updates.
 345:quantum/rgb_matrix.c ****     switch (effect) {
 346:quantum/rgb_matrix.c ****         case RGB_MATRIX_NONE:
 347:quantum/rgb_matrix.c ****             rendering = rgb_matrix_none(&rgb_effect_params);
 348:quantum/rgb_matrix.c ****             break;
 349:quantum/rgb_matrix.c **** 
 350:quantum/rgb_matrix.c **** // ---------------------------------------------
 351:quantum/rgb_matrix.c **** // -----Begin rgb effect switch case macros-----
 352:quantum/rgb_matrix.c **** #define RGB_MATRIX_EFFECT(name, ...)          \
 353:quantum/rgb_matrix.c ****     case RGB_MATRIX_##name:                   \
 354:quantum/rgb_matrix.c ****         rendering = name(&rgb_effect_params); \
 355:quantum/rgb_matrix.c ****         break;
 356:quantum/rgb_matrix.c **** #include "rgb_matrix_animations/rgb_matrix_effects.inc"
 357:quantum/rgb_matrix.c **** #undef RGB_MATRIX_EFFECT
 358:quantum/rgb_matrix.c **** 
 359:quantum/rgb_matrix.c **** #if defined(RGB_MATRIX_CUSTOM_KB) || defined(RGB_MATRIX_CUSTOM_USER)
 360:quantum/rgb_matrix.c **** #    define RGB_MATRIX_EFFECT(name, ...)          \
 361:quantum/rgb_matrix.c ****         case RGB_MATRIX_CUSTOM_##name:            \
 362:quantum/rgb_matrix.c ****             rendering = name(&rgb_effect_params); \
 363:quantum/rgb_matrix.c ****             break;
 364:quantum/rgb_matrix.c **** #    ifdef RGB_MATRIX_CUSTOM_KB
 365:quantum/rgb_matrix.c **** #        include "rgb_matrix_kb.inc"
 366:quantum/rgb_matrix.c **** #    endif
 367:quantum/rgb_matrix.c **** #    ifdef RGB_MATRIX_CUSTOM_USER
 368:quantum/rgb_matrix.c **** #        include "rgb_matrix_user.inc"
 369:quantum/rgb_matrix.c **** #    endif
 370:quantum/rgb_matrix.c **** #    undef RGB_MATRIX_EFFECT
 371:quantum/rgb_matrix.c **** #endif
 372:quantum/rgb_matrix.c ****             // -----End rgb effect switch case macros-------
 373:quantum/rgb_matrix.c ****             // ---------------------------------------------
 374:quantum/rgb_matrix.c **** 
 375:quantum/rgb_matrix.c ****         // Factory default magic value
 376:quantum/rgb_matrix.c ****         case UINT8_MAX: {
 377:quantum/rgb_matrix.c ****             rgb_matrix_test();
 378:quantum/rgb_matrix.c ****             rgb_task_state = FLUSHING;
 379:quantum/rgb_matrix.c ****         }
 380:quantum/rgb_matrix.c ****             return;
 381:quantum/rgb_matrix.c ****     }
 382:quantum/rgb_matrix.c **** 
 383:quantum/rgb_matrix.c ****     rgb_effect_params.iter++;
 384:quantum/rgb_matrix.c **** 
 385:quantum/rgb_matrix.c ****     // next task
 386:quantum/rgb_matrix.c ****     if (!rendering) {
 387:quantum/rgb_matrix.c ****         rgb_task_state = FLUSHING;
 388:quantum/rgb_matrix.c ****         if (!rgb_effect_params.init && effect == RGB_MATRIX_NONE) {
 389:quantum/rgb_matrix.c ****             // We only need to flush once if we are RGB_MATRIX_NONE
 390:quantum/rgb_matrix.c ****             rgb_task_state = SYNCING;
 391:quantum/rgb_matrix.c ****         }
 392:quantum/rgb_matrix.c ****     }
 393:quantum/rgb_matrix.c **** }
 394:quantum/rgb_matrix.c **** 
 395:quantum/rgb_matrix.c **** static void rgb_task_flush(uint8_t effect) {
 396:quantum/rgb_matrix.c ****     // update last trackers after the first full render so we can init over several frames
 397:quantum/rgb_matrix.c ****     rgb_last_effect = effect;
 398:quantum/rgb_matrix.c ****     rgb_last_enable = rgb_matrix_config.enable;
 399:quantum/rgb_matrix.c **** 
 400:quantum/rgb_matrix.c ****     // update pwm buffers
 401:quantum/rgb_matrix.c ****     rgb_matrix_update_pwm_buffers();
 402:quantum/rgb_matrix.c **** 
 403:quantum/rgb_matrix.c ****     // next task
 404:quantum/rgb_matrix.c ****     rgb_task_state = SYNCING;
 405:quantum/rgb_matrix.c **** }
 406:quantum/rgb_matrix.c **** 
 407:quantum/rgb_matrix.c **** void rgb_matrix_task(void) {
 408:quantum/rgb_matrix.c ****     rgb_task_timers();
 409:quantum/rgb_matrix.c **** 
 410:quantum/rgb_matrix.c ****     // Ideally we would also stop sending zeros to the LED driver PWM buffers
 411:quantum/rgb_matrix.c ****     // while suspended and just do a software shutdown. This is a cheap hack for now.
 412:quantum/rgb_matrix.c ****     bool suspend_backlight = suspend_state ||
 413:quantum/rgb_matrix.c **** #if RGB_DISABLE_TIMEOUT > 0
 414:quantum/rgb_matrix.c ****                              (rgb_anykey_timer > (uint32_t)RGB_DISABLE_TIMEOUT) ||
 415:quantum/rgb_matrix.c **** #endif  // RGB_DISABLE_TIMEOUT > 0
 416:quantum/rgb_matrix.c ****                              false;
 417:quantum/rgb_matrix.c **** 
 418:quantum/rgb_matrix.c ****     uint8_t effect = suspend_backlight || !rgb_matrix_config.enable ? 0 : rgb_matrix_config.mode;
 419:quantum/rgb_matrix.c **** 
 420:quantum/rgb_matrix.c ****     switch (rgb_task_state) {
 421:quantum/rgb_matrix.c ****         case STARTING:
 422:quantum/rgb_matrix.c ****             rgb_task_start();
 423:quantum/rgb_matrix.c ****             break;
 424:quantum/rgb_matrix.c ****         case RENDERING:
 425:quantum/rgb_matrix.c ****             rgb_task_render(effect);
 426:quantum/rgb_matrix.c ****             if (effect) {
 427:quantum/rgb_matrix.c ****                 rgb_matrix_indicators();
 428:quantum/rgb_matrix.c ****                 rgb_matrix_indicators_advanced(&rgb_effect_params);
 429:quantum/rgb_matrix.c ****             }
 430:quantum/rgb_matrix.c ****             break;
 431:quantum/rgb_matrix.c ****         case FLUSHING:
 432:quantum/rgb_matrix.c ****             rgb_task_flush(effect);
 433:quantum/rgb_matrix.c ****             break;
 434:quantum/rgb_matrix.c ****         case SYNCING:
 435:quantum/rgb_matrix.c ****             rgb_task_sync();
 436:quantum/rgb_matrix.c ****             break;
 437:quantum/rgb_matrix.c ****     }
 438:quantum/rgb_matrix.c **** }
 439:quantum/rgb_matrix.c **** 
 440:quantum/rgb_matrix.c **** void rgb_matrix_indicators(void) {
 441:quantum/rgb_matrix.c ****     rgb_matrix_indicators_kb();
 442:quantum/rgb_matrix.c ****     rgb_matrix_indicators_user();
 443:quantum/rgb_matrix.c **** }
 444:quantum/rgb_matrix.c **** 
 445:quantum/rgb_matrix.c **** __attribute__((weak)) void rgb_matrix_indicators_kb(void) {}
 2768               		.loc 5 445 59 view -0
 2769               		.cfi_startproc
 2770               	/* prologue: function */
 2771               	/* frame size = 0 */
 2772               	/* stack size = 0 */
 2773               	.L__stack_usage = 0
 2774               		.loc 5 445 60 view .LVU554
 2775               	/* epilogue start */
 2776               		.loc 5 445 1 is_stmt 0 view .LVU555
 2777 0000 0895      		ret
 2778               		.cfi_endproc
 2779               	.LFE129:
 2781               		.set	rgb_matrix_indicators_kb.localalias.5,rgb_matrix_indicators_kb
 2782               		.section	.text.rgb_matrix_indicators_user,"ax",@progbits
 2783               		.weak	rgb_matrix_indicators_user
 2785               	rgb_matrix_indicators_user:
 2786               	.LFB198:
 2787               		.cfi_startproc
 2788               	/* prologue: function */
 2789               	/* frame size = 0 */
 2790               	/* stack size = 0 */
 2791               	.L__stack_usage = 0
 2792               	/* epilogue start */
 2793 0000 0895      		ret
 2794               		.cfi_endproc
 2795               	.LFE198:
 2797               		.section	.text.rgb_matrix_indicators,"ax",@progbits
 2798               	.global	rgb_matrix_indicators
 2800               	rgb_matrix_indicators:
 2801               	.LFB128:
 440:quantum/rgb_matrix.c ****     rgb_matrix_indicators_kb();
 2802               		.loc 5 440 34 is_stmt 1 view -0
 2803               		.cfi_startproc
 2804               	/* prologue: function */
 2805               	/* frame size = 0 */
 2806               	/* stack size = 0 */
 2807               	.L__stack_usage = 0
 441:quantum/rgb_matrix.c ****     rgb_matrix_indicators_user();
 2808               		.loc 5 441 5 view .LVU557
 2809 0000 0E94 0000 		call rgb_matrix_indicators_kb
 2810               	.LVL241:
 442:quantum/rgb_matrix.c **** }
 2811               		.loc 5 442 5 view .LVU558
 2812 0004 0C94 0000 		jmp rgb_matrix_indicators_user
 2813               	.LVL242:
 2814               		.cfi_endproc
 2815               	.LFE128:
 2817               		.section	.text.rgb_matrix_indicators_advanced_kb,"ax",@progbits
 2818               		.weak	rgb_matrix_indicators_advanced_kb
 2820               	rgb_matrix_indicators_advanced_kb:
 2821               	.LVL243:
 2822               	.LFB132:
 446:quantum/rgb_matrix.c **** 
 447:quantum/rgb_matrix.c **** __attribute__((weak)) void rgb_matrix_indicators_user(void) {}
 448:quantum/rgb_matrix.c **** 
 449:quantum/rgb_matrix.c **** void rgb_matrix_indicators_advanced(effect_params_t *params) {
 450:quantum/rgb_matrix.c ****     /* special handling is needed for "params->iter", since it's already been incremented.
 451:quantum/rgb_matrix.c ****      * Could move the invocations to rgb_task_render, but then it's missing a few checks
 452:quantum/rgb_matrix.c ****      * and not sure which would be better. Otherwise, this should be called from
 453:quantum/rgb_matrix.c ****      * rgb_task_render, right before the iter++ line.
 454:quantum/rgb_matrix.c ****      */
 455:quantum/rgb_matrix.c **** #if defined(RGB_MATRIX_LED_PROCESS_LIMIT) && RGB_MATRIX_LED_PROCESS_LIMIT > 0 && RGB_MATRIX_LED_PRO
 456:quantum/rgb_matrix.c ****     uint8_t min = RGB_MATRIX_LED_PROCESS_LIMIT * (params->iter - 1);
 457:quantum/rgb_matrix.c ****     uint8_t max = min + RGB_MATRIX_LED_PROCESS_LIMIT;
 458:quantum/rgb_matrix.c ****     if (max > DRIVER_LED_TOTAL) max = DRIVER_LED_TOTAL;
 459:quantum/rgb_matrix.c **** #else
 460:quantum/rgb_matrix.c ****     uint8_t min = 0;
 461:quantum/rgb_matrix.c ****     uint8_t max = DRIVER_LED_TOTAL;
 462:quantum/rgb_matrix.c **** #endif
 463:quantum/rgb_matrix.c ****     rgb_matrix_indicators_advanced_kb(min, max);
 464:quantum/rgb_matrix.c ****     rgb_matrix_indicators_advanced_user(min, max);
 465:quantum/rgb_matrix.c **** }
 466:quantum/rgb_matrix.c **** 
 467:quantum/rgb_matrix.c **** __attribute__((weak)) void rgb_matrix_indicators_advanced_kb(uint8_t led_min, uint8_t led_max) {}
 2823               		.loc 5 467 96 view -0
 2824               		.cfi_startproc
 2825               	/* prologue: function */
 2826               	/* frame size = 0 */
 2827               	/* stack size = 0 */
 2828               	.L__stack_usage = 0
 2829               		.loc 5 467 97 view .LVU560
 2830               	/* epilogue start */
 2831               		.loc 5 467 1 is_stmt 0 view .LVU561
 2832 0000 0895      		ret
 2833               		.cfi_endproc
 2834               	.LFE132:
 2836               		.set	rgb_matrix_indicators_advanced_kb.localalias.6,rgb_matrix_indicators_advanced_kb
 2837               		.section	.text.rgb_matrix_indicators_advanced_user,"ax",@progbits
 2838               		.weak	rgb_matrix_indicators_advanced_user
 2840               	rgb_matrix_indicators_advanced_user:
 2841               	.LFB200:
 2842               		.cfi_startproc
 2843               	/* prologue: function */
 2844               	/* frame size = 0 */
 2845               	/* stack size = 0 */
 2846               	.L__stack_usage = 0
 2847               	/* epilogue start */
 2848 0000 0895      		ret
 2849               		.cfi_endproc
 2850               	.LFE200:
 2852               		.section	.text.rgb_matrix_indicators_advanced,"ax",@progbits
 2853               	.global	rgb_matrix_indicators_advanced
 2855               	rgb_matrix_indicators_advanced:
 2856               	.LVL244:
 2857               	.LFB131:
 449:quantum/rgb_matrix.c ****     /* special handling is needed for "params->iter", since it's already been incremented.
 2858               		.loc 5 449 62 is_stmt 1 view -0
 2859               		.cfi_startproc
 449:quantum/rgb_matrix.c ****     /* special handling is needed for "params->iter", since it's already been incremented.
 2860               		.loc 5 449 62 is_stmt 0 view .LVU563
 2861 0000 CF93      		push r28
 2862               	.LCFI107:
 2863               		.cfi_def_cfa_offset 3
 2864               		.cfi_offset 28, -2
 2865 0002 DF93      		push r29
 2866               	.LCFI108:
 2867               		.cfi_def_cfa_offset 4
 2868               		.cfi_offset 29, -3
 2869               	/* prologue: function */
 2870               	/* frame size = 0 */
 2871               	/* stack size = 2 */
 2872               	.L__stack_usage = 2
 456:quantum/rgb_matrix.c ****     uint8_t max = min + RGB_MATRIX_LED_PROCESS_LIMIT;
 2873               		.loc 5 456 5 is_stmt 1 view .LVU564
 456:quantum/rgb_matrix.c ****     uint8_t max = min + RGB_MATRIX_LED_PROCESS_LIMIT;
 2874               		.loc 5 456 13 is_stmt 0 view .LVU565
 2875 0004 FC01      		movw r30,r24
 2876 0006 C081      		ld r28,Z
 2877 0008 8BE0      		ldi r24,lo8(11)
 2878               	.LVL245:
 456:quantum/rgb_matrix.c ****     uint8_t max = min + RGB_MATRIX_LED_PROCESS_LIMIT;
 2879               		.loc 5 456 13 view .LVU566
 2880 000a C89F      		mul r28,r24
 2881 000c C02D      		mov r28,r0
 2882 000e 1124      		clr r1
 2883 0010 D5EF      		ldi r29,lo8(-11)
 2884 0012 DC0F      		add r29,r28
 2885               	.LVL246:
 457:quantum/rgb_matrix.c ****     if (max > DRIVER_LED_TOTAL) max = DRIVER_LED_TOTAL;
 2886               		.loc 5 457 5 is_stmt 1 view .LVU567
 458:quantum/rgb_matrix.c **** #else
 2887               		.loc 5 458 5 view .LVU568
 2888 0014 C633      		cpi r28,lo8(54)
 2889 0016 00F0      		brlo .L115
 2890 0018 C5E3      		ldi r28,lo8(53)
 2891               	.LVL247:
 2892               	.L115:
 463:quantum/rgb_matrix.c ****     rgb_matrix_indicators_advanced_user(min, max);
 2893               		.loc 5 463 5 view .LVU569
 2894 001a 6C2F      		mov r22,r28
 2895 001c 8D2F      		mov r24,r29
 2896 001e 0E94 0000 		call rgb_matrix_indicators_advanced_kb
 2897               	.LVL248:
 464:quantum/rgb_matrix.c **** }
 2898               		.loc 5 464 5 view .LVU570
 2899 0022 6C2F      		mov r22,r28
 2900 0024 8D2F      		mov r24,r29
 2901               	/* epilogue start */
 465:quantum/rgb_matrix.c **** 
 2902               		.loc 5 465 1 is_stmt 0 view .LVU571
 2903 0026 DF91      		pop r29
 2904               	.LVL249:
 465:quantum/rgb_matrix.c **** 
 2905               		.loc 5 465 1 view .LVU572
 2906 0028 CF91      		pop r28
 2907               	.LVL250:
 464:quantum/rgb_matrix.c **** }
 2908               		.loc 5 464 5 view .LVU573
 2909 002a 0C94 0000 		jmp rgb_matrix_indicators_advanced_user
 2910               	.LVL251:
 464:quantum/rgb_matrix.c **** }
 2911               		.loc 5 464 5 view .LVU574
 2912               		.cfi_endproc
 2913               	.LFE131:
 2915               		.section	.rodata
 2916               	.LC1:
 2917 0003 29        		.byte	41
 2918 0004 2F        		.byte	47
 2919 0005 30        		.byte	48
 2920 0006 31        		.byte	49
 2921 0007 32        		.byte	50
 2922 0008 33        		.byte	51
 2923 0009 34        		.byte	52
 2924 000a 10        		.byte	16
 2925 000b 13        		.byte	19
 2926 000c 22        		.byte	34
 2927 000d 2C        		.byte	44
 2928 000e 2D        		.byte	45
 2929 000f 2E        		.byte	46
 2930               	.LC2:
 2931 0010 29        		.byte	41
 2932 0011 2F        		.byte	47
 2933 0012 30        		.byte	48
 2934 0013 31        		.byte	49
 2935 0014 32        		.byte	50
 2936 0015 33        		.byte	51
 2937 0016 34        		.byte	52
 2938 0017 0D        		.byte	13
 2939 0018 0E        		.byte	14
 2940 0019 0F        		.byte	15
 2941 001a 10        		.byte	16
 2942 001b 11        		.byte	17
 2943 001c 12        		.byte	18
 2944 001d 13        		.byte	19
 2945 001e 14        		.byte	20
 2946 001f 15        		.byte	21
 2947 0020 16        		.byte	22
 2948 0021 2D        		.byte	45
 2949 0022 1C        		.byte	28
 2950 0023 1D        		.byte	29
 2951               	.LC3:
 2952 0024 29        		.byte	41
 2953 0025 2F        		.byte	47
 2954 0026 30        		.byte	48
 2955 0027 31        		.byte	49
 2956 0028 32        		.byte	50
 2957 0029 33        		.byte	51
 2958 002a 34        		.byte	52
 2959 002b 13        		.byte	19
 2960 002c 14        		.byte	20
 2961 002d 15        		.byte	21
 2962 002e 1F        		.byte	31
 2963 002f 20        		.byte	32
 2964 0030 21        		.byte	33
 2965 0031 2B        		.byte	43
 2966 0032 1D        		.byte	29
 2967               	.LC4:
 2968 0033 29        		.byte	41
 2969 0034 2F        		.byte	47
 2970 0035 30        		.byte	48
 2971 0036 31        		.byte	49
 2972 0037 32        		.byte	50
 2973 0038 33        		.byte	51
 2974 0039 34        		.byte	52
 2975 003a 22        		.byte	34
 2976 003b 2C        		.byte	44
 2977 003c 2D        		.byte	45
 2978 003d 2E        		.byte	46
 2979 003e 15        		.byte	21
 2980 003f 17        		.byte	23
 2981 0040 14        		.byte	20
 2982 0041 20        		.byte	32
 2983 0042 1D        		.byte	29
 2984               		.section	.text.rgb_matrix_task,"ax",@progbits
 2985               	.global	rgb_matrix_task
 2987               	rgb_matrix_task:
 2988               	.LFB127:
 407:quantum/rgb_matrix.c ****     rgb_task_timers();
 2989               		.loc 5 407 28 is_stmt 1 view -0
 2990               		.cfi_startproc
 2991 0000 4F92      		push r4
 2992               	.LCFI109:
 2993               		.cfi_def_cfa_offset 3
 2994               		.cfi_offset 4, -2
 2995 0002 5F92      		push r5
 2996               	.LCFI110:
 2997               		.cfi_def_cfa_offset 4
 2998               		.cfi_offset 5, -3
 2999 0004 6F92      		push r6
 3000               	.LCFI111:
 3001               		.cfi_def_cfa_offset 5
 3002               		.cfi_offset 6, -4
 3003 0006 7F92      		push r7
 3004               	.LCFI112:
 3005               		.cfi_def_cfa_offset 6
 3006               		.cfi_offset 7, -5
 3007 0008 8F92      		push r8
 3008               	.LCFI113:
 3009               		.cfi_def_cfa_offset 7
 3010               		.cfi_offset 8, -6
 3011 000a 9F92      		push r9
 3012               	.LCFI114:
 3013               		.cfi_def_cfa_offset 8
 3014               		.cfi_offset 9, -7
 3015 000c AF92      		push r10
 3016               	.LCFI115:
 3017               		.cfi_def_cfa_offset 9
 3018               		.cfi_offset 10, -8
 3019 000e BF92      		push r11
 3020               	.LCFI116:
 3021               		.cfi_def_cfa_offset 10
 3022               		.cfi_offset 11, -9
 3023 0010 CF92      		push r12
 3024               	.LCFI117:
 3025               		.cfi_def_cfa_offset 11
 3026               		.cfi_offset 12, -10
 3027 0012 DF92      		push r13
 3028               	.LCFI118:
 3029               		.cfi_def_cfa_offset 12
 3030               		.cfi_offset 13, -11
 3031 0014 EF92      		push r14
 3032               	.LCFI119:
 3033               		.cfi_def_cfa_offset 13
 3034               		.cfi_offset 14, -12
 3035 0016 FF92      		push r15
 3036               	.LCFI120:
 3037               		.cfi_def_cfa_offset 14
 3038               		.cfi_offset 15, -13
 3039 0018 0F93      		push r16
 3040               	.LCFI121:
 3041               		.cfi_def_cfa_offset 15
 3042               		.cfi_offset 16, -14
 3043 001a 1F93      		push r17
 3044               	.LCFI122:
 3045               		.cfi_def_cfa_offset 16
 3046               		.cfi_offset 17, -15
 3047 001c CF93      		push r28
 3048               	.LCFI123:
 3049               		.cfi_def_cfa_offset 17
 3050               		.cfi_offset 28, -16
 3051 001e DF93      		push r29
 3052               	.LCFI124:
 3053               		.cfi_def_cfa_offset 18
